(dp0
S'W'
p1
(lp2
(lp3
F1.4999999999999998
aF3.5
aF3.5
aF12.5
aa(lp4
F3.5
aF12.5
aF5.5
aF7.4999999999999991
aa(lp5
F5.5
aF7.4999999999999991
aF7.4999999999999991
aF12.5
aa(lp6
F7.4999999999999991
aF12.5
aF9.5
aF3.5
aasS'!'
p7
(lp8
(lp9
F2.5
aF12.5
aF2.5
aF12.5
aa(lp10
F2.5
aF10.5
aF2.5
aF3.5
aasS'"'
p11
(lp12
(lp13
F1.5
aF5.5
aF2.5
aF3.5
aa(lp14
F5.5
aF3.5
aF4.5
aF5.5
aasS'$'
p15
(lp16
(lp17
F1.4999999999999996
aF1.4999999999999996
aF13.5
aF1.4999999999999996
aa(lp18
F13.5
aF1.4999999999999996
aF13.5
aF14.499999999999996
aasS'+'
p19
(lp20
(lp21
F1.5
aF11.5
aF5.5
aF11.5
aa(lp22
F3.5
aF13.5
aF3.5
aF9.5
aasS'-'
p23
(lp24
(lp25
F1.5
aF9.5
aF5.5
aF9.5
aasS'1'
p26
(lp27
(lp28
F3.5
aF3.5
aF1.4999999999999998
aF5.5
aa(lp29
F3.5
aF3.5
aF3.5
aF12.5
aasS'3'
p30
(lp31
(lp32
F3.5
aF3.5
aF4.1839999999999993
aF3.6206666666666663
aF4.7856666666666667
aF3.968
aF5.2320000000000002
aF4.5
aF5.4696666666666669
aF5.1526666666666658
aF5.4696666666666669
aF5.8473333333333333
aF5.2320000000000002
aF6.5
aF4.7856666666666667
aF7.032
aF4.1839999999999993
aF7.3793333333333333
aF3.5
aF7.4999999999999991
aa(lp33
F3.5
aF7.4999999999999991
aF4.2813333333333334
aF7.6589999999999989
aF4.9386666666666654
aF8.1106666666666651
aF5.3669999999999991
aF8.7833333333333332
aF5.5
aF9.5
aa(lp34
F5.5
aF10.5
aF5.3409999999999993
aF11.281333333333331
aF4.8893333333333322
aF11.938666666666666
aF4.2166666666666659
aF12.366999999999999
aF3.5
aF12.5
aa(lp35
F5.5
aF9.5
aF5.5
aF10.5
aa(lp36
F3.5
aF12.5
aF1.4999999999999998
aF12.5
aa(lp37
F3.5
aF3.5
aF1.4999999999999998
aF3.5
aa(lp38
F3.5
aF7.4999999999999991
aF2.5
aF7.4999999999999991
aasS'2'
p39
(lp40
(lp41
F1.4903333333333333
aF4.5196666666666667
aF1.9749999999999996
aF3.8646666666666665
aF2.6623333333333337
aF3.4266666666666659
aF3.4609999999999999
aF3.2643333333333331
aF4.2646666666666668
aF3.3986666666666658
aF4.9669999999999987
aF3.8123333333333331
aF5.4743333333333331
aF4.4503333333333321
aF5.4923333333333328
aF4.4850000000000003
aa(lp42
F5.5
aF4.5
aF5.5
aF5.5
aa(lp43
F5.5
aF5.5
aF1.4999999999999998
aF12.5
aa(lp44
F1.4999999999999998
aF12.5
aF5.5
aF12.5
aasS'5'
p45
(lp46
(lp47
F5.5
aF3.5
aF1.4999999999999998
aF3.5
aa(lp48
F1.4999999999999998
aF7.4999999999999991
aF1.4999999999999998
aF3.5
aa(lp49
F3.5
aF7.4999999999999991
aF4.2813333333333334
aF7.6589999999999989
aF4.9386666666666654
aF8.1106666666666651
aF5.3669999999999991
aF8.7833333333333332
aF5.5
aF9.5
aa(lp50
F5.5
aF10.5
aF5.3409999999999993
aF11.281333333333331
aF4.8893333333333322
aF11.938666666666666
aF4.2166666666666659
aF12.366999999999999
aF3.5
aF12.5
aa(lp51
F3.5
aF12.5
aF1.4999999999999998
aF12.5
aa(lp52
F5.5
aF10.5
aF5.5
aF9.5
aa(lp53
F3.5
aF7.4999999999999991
aF1.4999999999999998
aF7.4999999999999991
aasS'4'
p54
(lp55
(lp56
F5.0
aF12.5
aF5.0
aF8.4999999999999982
aa(lp57
F6.5
aF10.5
aF1.4999999999999998
aF10.5
aa(lp58
F1.4999999999999998
aF10.5
aF3.5
aF3.5
aasS'7'
p59
(lp60
(lp61
F1.4999999999999998
aF3.5
aF1.4999999999999998
aF2.5
aa(lp62
F1.4999999999999998
aF2.5
aF5.5
aF2.5
aa(lp63
F5.5
aF2.5
aF3.0
aF12.5
aasS'6'
p64
(lp65
(lp66
F5.5
aF10.5
aF5.3793333333333333
aF11.183999999999997
aF5.032
aF11.785666666666664
aF4.5
aF12.231999999999999
aF3.8473333333333328
aF12.469666666666665
aF3.1526666666666667
aF12.469666666666665
aF2.5
aF12.231999999999999
aF1.968
aF11.785666666666664
aF1.6206666666666665
aF11.183999999999997
aF1.5
aF10.5
aa(lp67
F3.5
aF7.4999999999999991
aF4.2813333333333334
aF7.6589999999999989
aF4.9386666666666654
aF8.1106666666666651
aF5.3669999999999991
aF8.7833333333333332
aF5.5
aF9.5
aa(lp68
F1.4999999999999998
aF10.5
aF1.4999999999999998
aF8.4999999999999982
aa(lp69
F1.4999999999999998
aF8.4999999999999982
aF1.9999999999999996
aF6.5
aa(lp70
F1.9999999999999996
aF6.5
aF3.5
aF4.5
aa(lp71
F3.5
aF4.5
aF4.5
aF3.5
aa(lp72
F3.5
aF7.4999999999999991
aF1.7333333333333334
aF7.5333333333333323
aa(lp73
F5.5
aF9.5
aF5.5
aF10.5
aasS'9'
p74
(lp75
(lp76
F1.5
aF5.5
aF1.6206666666666665
aF4.8159999999999998
aF1.968
aF4.2143333333333333
aF2.5
aF3.7680000000000002
aF3.1526666666666667
aF3.5303333333333327
aF3.8473333333333328
aF3.5303333333333327
aF4.5
aF3.7680000000000002
aF5.032
aF4.2143333333333333
aF5.3793333333333333
aF4.8159999999999998
aF5.5
aF5.5
aa(lp77
F3.5
aF8.4999999999999982
aF2.7186666666666661
aF8.3409999999999993
aF2.0613333333333332
aF7.8893333333333331
aF1.633
aF7.2166666666666668
aF1.5
aF6.5
aa(lp78
F1.4999999999999998
aF6.5
aF1.4999999999999998
aF5.5
aa(lp79
F5.5
aF5.5
aF5.5
aF7.4999999999999991
aa(lp80
F5.5
aF7.4999999999999991
aF5.0
aF9.5
aa(lp81
F5.0
aF9.5
aF3.5
aF11.5
aa(lp82
F3.5
aF11.5
aF2.5
aF12.5
aa(lp83
F3.5
aF8.4999999999999982
aF5.2000000000000002
aF8.4333333333333318
aasS'8'
p84
(lp85
(lp86
F1.5
aF5.5
aF1.6206666666666665
aF4.8159999999999998
aF1.968
aF4.2143333333333333
aF2.5
aF3.7680000000000002
aF3.1526666666666667
aF3.5303333333333327
aF3.8473333333333328
aF3.5303333333333327
aF4.5
aF3.7680000000000002
aF5.032
aF4.2143333333333333
aF5.3793333333333333
aF4.8159999999999998
aF5.5
aF5.5
aF5.3793333333333333
aF6.1839999999999993
aF5.032
aF6.785666666666665
aF4.5
aF7.2320000000000002
aF3.8473333333333328
aF7.469666666666666
aF3.1526666666666667
aF7.469666666666666
aF2.5
aF7.2320000000000002
aF1.968
aF6.785666666666665
aF1.6206666666666665
aF6.1839999999999993
aF1.5
aF5.5
aa(lp87
F1.5
aF9.5
aF1.6206666666666665
aF8.8160000000000007
aF1.968
aF8.2143333333333342
aF2.5
aF7.7679999999999989
aF3.1526666666666667
aF7.5303333333333331
aF3.8473333333333328
aF7.5303333333333331
aF4.5
aF7.7679999999999989
aF5.032
aF8.2143333333333342
aF5.3793333333333333
aF8.8160000000000007
aF5.5
aF9.5
aa(lp88
F5.5
aF10.5
aF5.3793333333333333
aF11.183999999999997
aF5.032
aF11.785666666666664
aF4.5
aF12.231999999999999
aF3.8473333333333328
aF12.469666666666665
aF3.1526666666666667
aF12.469666666666665
aF2.5
aF12.231999999999999
aF1.968
aF11.785666666666664
aF1.6206666666666665
aF11.183999999999997
aF1.5
aF10.5
aa(lp89
F1.4999999999999998
aF10.5
aF1.4999999999999998
aF9.5
aa(lp90
F5.5
aF9.5
aF5.5
aF10.5
aasS';'
p91
(lp92
(lp93
F1.5
aF13.5
aF2.5
aF11.5
aa(lp94
F2.5
aF7.5
aF2.5
aF7.5
aasS':'
p95
(lp96
(lp97
F1.5
aF13.5
aF1.5
aF13.5
aa(lp98
F1.5
aF9.5
aF1.5
aF9.5
aasS'='
p99
(lp100
(lp101
F1.5
aF8.5
aF5.5
aF8.5
aa(lp102
F1.5
aF10.5
aF5.5
aF10.5
aasS'A'
p103
(lp104
(lp105
F1.4999999999999998
aF12.5
aF4.5
aF3.5
aa(lp106
F4.5
aF3.5
aF7.4999999999999991
aF12.5
aa(lp107
F2.5
aF10.0
aF6.5
aF10.0
aasS'C'
p108
(lp109
(lp110
F1.5
aF5.5
aF1.6589999999999998
aF4.7186666666666666
aF2.1106666666666665
aF4.0613333333333337
aF2.7833333333333328
aF3.6329999999999991
aF3.4999999999999996
aF3.4999999999999996
aa(lp111
F3.4999999999999996
aF3.4999999999999996
aF5.5
aF3.4999999999999996
aa(lp112
F3.5
aF12.5
aF2.7186666666666661
aF12.341000000000001
aF2.0613333333333332
aF11.889333333333333
aF1.633
aF11.216666666666667
aF1.5
aF10.5
aa(lp113
F1.4999999999999998
aF5.5
aF1.4999999999999998
aF10.5
aa(lp114
F3.5
aF12.5
aF5.5
aF12.5
aasS'B'
p115
(lp116
(lp117
F1.4999999999999996
aF12.500000000000002
aF1.4999999999999996
aF3.4999999999999996
aa(lp118
F1.4999999999999996
aF7.4999999999999991
aF4.5
aF7.4999999999999991
aa(lp119
F4.4986666666666668
aF3.4996666666666654
aF5.2116666666666651
aF3.8323333333333327
aF5.7483333333333313
aF4.4076666666666675
aF6.0303333333333313
aF5.1419999999999977
aF6.0166666666666666
aF5.9286666666666674
aF5.7089999999999996
aF6.6526666666666658
aF5.1526666666666658
aF7.2089999999999987
aF4.5336666666666661
aF7.4913333333333325
aa(lp120
F1.4999999999999996
aF3.4999999999999996
aF4.5
aF3.4999999999999996
aa(lp121
F1.4999999999999996
aF12.500000000000002
aF4.5
aF12.500000000000002
aa(lp122
F4.5
aF7.4999999999999991
aF5.3550000000000004
aF7.6506666666666661
aF6.1070000000000002
aF8.0850000000000009
aF6.6649999999999983
aF8.75
aF6.9619999999999997
aF9.5660000000000007
aF6.9619999999999997
aF10.433999999999997
aF6.6649999999999983
aF11.25
aF6.1070000000000002
aF11.914999999999997
aF5.3550000000000004
aF12.349333333333334
aF4.5
aF12.5
aasS'E'
p123
(lp124
(lp125
F1.4999999999999998
aF12.5
aF1.4999999999999998
aF3.5
aa(lp126
F1.4999999999999998
aF7.4999999999999991
aF4.5
aF7.4999999999999991
aa(lp127
F1.4999999999999998
aF3.5
aF5.5
aF3.5
aa(lp128
F1.4999999999999998
aF12.5
aF5.5
aF12.5
aasS'D'
p129
(lp130
(lp131
F1.4999999999999998
aF12.500000000000002
aF1.4999999999999998
aF3.5
aa(lp132
F1.4999999999999998
aF3.5
aF4.5
aF3.5
aa(lp133
F1.4999999999999998
aF12.500000000000002
aF4.5
aF12.500000000000002
aa(lp134
F1.4999999999999998
aF12.500000000000002
aF1.4999999999999998
aF3.4999999999999996
aa(lp135
F1.4999999999999998
aF3.4999999999999996
aF4.5
aF3.4999999999999996
aa(lp136
F1.4999999999999998
aF12.500000000000002
aF4.5
aF12.500000000000002
aa(lp137
F4.5
aF3.5
aF5.2813333333333334
aF3.6589999999999998
aF5.9386666666666654
aF4.110666666666666
aF6.367
aF4.7833333333333332
aF6.5
aF5.5000000000000009
aa(lp138
F6.5
aF5.5000000000000009
aF6.5
aF10.5
aa(lp139
F6.5
aF10.5
aF6.3409999999999993
aF11.281333333333331
aF5.8893333333333331
aF11.938666666666666
aF5.2166666666666668
aF12.367000000000001
aF4.5
aF12.500000000000002
aasS'G'
p140
(lp141
(lp142
F1.5
aF5.5
aF1.6589999999999998
aF4.7186666666666666
aF2.1106666666666665
aF4.0613333333333337
aF2.7833333333333328
aF3.6329999999999991
aF3.4999999999999996
aF3.4999999999999996
aa(lp143
F3.5
aF12.5
aF2.7186666666666661
aF12.341000000000001
aF2.0613333333333332
aF11.889333333333333
aF1.633
aF11.216666666666667
aF1.5
aF10.5
aa(lp144
F1.4999999999999998
aF5.5
aF1.4999999999999998
aF10.5
aa(lp145
F3.5
aF3.5
aF6.5
aF3.5
aa(lp146
F3.5
aF12.5
aF6.5
aF12.5
aa(lp147
F6.5
aF12.5
aF6.5
aF7.4999999999999991
aa(lp148
F6.5
aF7.4999999999999991
aF5.5
aF7.4999999999999991
aasS'F'
p149
(lp150
(lp151
F1.5
aF3.566666666666666
aF1.5000000000000002
aF12.499999999999996
aa(lp152
F1.4999999999999998
aF3.5
aF5.5
aF3.5
aa(lp153
F1.4999999999999998
aF7.4999999999999991
aF5.5
aF7.4999999999999991
aasS'I'
p154
(lp155
(lp156
F1.4999999999999998
aF12.500000000000002
aF1.4999999999999998
aF3.5
aasS'H'
p157
(lp158
(lp159
F1.5
aF3.566666666666666
aF1.5000000000000002
aF12.499999999999996
aa(lp160
F6.5
aF3.5
aF6.5
aF12.5
aa(lp161
F1.4999999999999998
aF7.4999999999999991
aF6.5
aF7.4999999999999991
aasS'K'
p162
(lp163
(lp164
F1.4999999999999998
aF12.5
aF1.4999999999999998
aF3.5
aa(lp165
F6.5
aF3.5
aF1.4999999999999998
aF9.5
aa(lp166
F6.5
aF12.5
aF3.0333333333333332
aF7.6999999999999993
aasS'J'
p167
(lp168
(lp169
F1.4999999999999998
aF12.5
aF2.5
aF12.5
aa(lp170
F4.5
aF10.5
aF4.3409999999999993
aF11.281333333333331
aF3.8893333333333331
aF11.938666666666666
aF3.2166666666666668
aF12.366999999999999
aF2.5
aF12.5
aa(lp171
F4.5
aF10.5
aF4.5
aF3.5
aasS'M'
p172
(lp173
(lp174
F1.4999999999999998
aF12.5
aF1.4999999999999998
aF3.5
aa(lp175
F1.4999999999999998
aF3.5
aF4.5
aF8.4999999999999982
aa(lp176
F4.5
aF8.4999999999999982
aF7.4999999999999991
aF3.5
aa(lp177
F7.4999999999999991
aF3.5
aF7.4999999999999991
aF12.5
aasS'L'
p178
(lp179
(lp180
F1.4999999999999996
aF12.5
aF1.4999999999999996
aF3.4999999999999996
aa(lp181
F1.4999999999999998
aF12.5
aF5.5
aF12.5
aasS'O'
p182
(lp183
(lp184
F1.5
aF5.5
aF1.6589999999999996
aF4.7186666666666666
aF2.1106666666666665
aF4.0613333333333337
aF2.7833333333333328
aF3.6329999999999987
aF3.4999999999999991
aF3.4999999999999991
aa(lp185
F3.5
aF12.5
aF2.7186666666666661
aF12.341000000000001
aF2.0613333333333332
aF11.889333333333333
aF1.633
aF11.216666666666667
aF1.5
aF10.5
aa(lp186
F6.5
aF10.5
aF6.3409999999999993
aF11.281333333333331
aF5.8893333333333322
aF11.938666666666666
aF5.2166666666666668
aF12.366999999999999
aF4.5
aF12.5
aa(lp187
F4.5
aF3.5
aF5.2813333333333334
aF3.6589999999999994
aF5.9386666666666654
aF4.110666666666666
aF6.367
aF4.7833333333333332
aF6.5
aF5.5
aa(lp188
F1.4999999999999998
aF5.5
aF1.4999999999999998
aF10.5
aa(lp189
F3.5
aF12.5
aF4.5
aF12.5
aa(lp190
F6.5
aF5.5
aF6.5
aF10.5
aa(lp191
F3.5
aF3.5
aF4.5
aF3.5
aasS'N'
p192
(lp193
(lp194
F1.4999999999999998
aF12.5
aF1.4999999999999998
aF3.5
aa(lp195
F1.4999999999999998
aF3.5
aF6.5
aF12.5
aa(lp196
F6.5
aF12.5
aF6.5
aF3.5
aasS'Q'
p197
(lp198
(lp199
F1.5
aF5.5
aF1.6589999999999996
aF4.7186666666666666
aF2.1106666666666665
aF4.0613333333333337
aF2.7833333333333328
aF3.6329999999999987
aF3.4999999999999991
aF3.4999999999999991
aa(lp200
F3.4999999999999996
aF12.5
aF2.7186666666666657
aF12.340999999999999
aF2.0613333333333332
aF11.889333333333333
aF1.6329999999999998
aF11.216666666666667
aF1.5
aF10.5
aa(lp201
F6.5
aF10.5
aF6.3409999999999993
aF11.281333333333331
aF5.8893333333333322
aF11.938666666666663
aF5.2166666666666668
aF12.366999999999997
aF4.5
aF12.5
aa(lp202
F4.5
aF3.4999999999999996
aF5.2813333333333325
aF3.6589999999999989
aF5.9386666666666654
aF4.1106666666666651
aF6.367
aF4.7833333333333332
aF6.5
aF5.5
aa(lp203
F1.4999999999999996
aF5.5
aF1.4999999999999996
aF10.5
aa(lp204
F3.4999999999999996
aF12.5
aF4.5
aF12.5
aa(lp205
F6.5
aF5.5
aF6.5
aF10.5
aa(lp206
F3.4999999999999996
aF3.4999999999999996
aF4.5
aF3.4999999999999996
aa(lp207
F4.5
aF10.5
aF7.4999999999999991
aF12.5
aasS'P'
p208
(lp209
(lp210
F1.4999999999999998
aF12.5
aF1.4999999999999998
aF3.5
aa(lp211
F4.5
aF3.5
aF5.3550000000000004
aF3.6506666666666661
aF6.1070000000000002
aF4.0849999999999991
aF6.6649999999999983
aF4.75
aF6.9619999999999997
aF5.5659999999999998
aF6.9619999999999997
aF6.4339999999999993
aF6.6649999999999983
aF7.2499999999999991
aF6.1070000000000002
aF7.9149999999999983
aF5.3550000000000004
aF8.3493333333333322
aF4.5
aF8.4999999999999982
aa(lp212
F1.4999999999999998
aF8.4999999999999982
aF4.5
aF8.4999999999999982
aa(lp213
F1.4999999999999998
aF3.5
aF4.5
aF3.5
aasS'S'
p214
(lp215
(lp216
F6.5
aF10.5
aF6.3409999999999993
aF11.281333333333331
aF5.8893333333333322
aF11.938666666666666
aF5.2166666666666668
aF12.366999999999999
aF4.5
aF12.5
aa(lp217
F1.5
aF12.0
aF3.0
aF12.5
aa(lp218
F3.0
aF12.5
aF4.5
aF12.5
aa(lp219
F6.5
aF3.9999999999999991
aF5.0
aF3.5
aa(lp220
F5.0
aF3.5
aF5.0
aF3.5
aa(lp221
F5.0
aF3.5
aF3.5
aF3.5
aa(lp222
F1.5
aF5.5
aF1.659
aF4.7186666666666666
aF2.1106666666666665
aF4.0613333333333337
aF2.7833333333333332
aF3.6329999999999996
aF3.5
aF3.5
aa(lp223
F6.0
aF9.5
aF6.5
aF10.5
aa(lp224
F1.4999999999999998
aF5.5
aF1.9999999999999996
aF6.5
aa(lp225
F1.9999999999999996
aF6.5
aF6.0
aF9.5
aasS'R'
p226
(lp227
(lp228
F1.4999999999999996
aF12.5
aF1.4999999999999996
aF3.4999999999999996
aa(lp229
F4.5
aF3.4999999999999996
aF5.3550000000000004
aF3.6506666666666656
aF6.1069999999999993
aF4.0849999999999991
aF6.6649999999999974
aF4.75
aF6.9619999999999989
aF5.5659999999999998
aF6.9619999999999989
aF6.4339999999999993
aF6.6649999999999974
aF7.2499999999999982
aF6.1069999999999993
aF7.9149999999999974
aF5.3550000000000004
aF8.3493333333333322
aF4.5
aF8.4999999999999982
aa(lp230
F1.4999999999999996
aF8.4999999999999982
aF4.5
aF8.4999999999999982
aa(lp231
F1.4999999999999996
aF3.4999999999999996
aF4.5
aF3.4999999999999996
aa(lp232
F6.5
aF12.5
aF4.5
aF8.4999999999999982
aasS'U'
p233
(lp234
(lp235
F3.4999999999999996
aF12.5
aF2.7186666666666657
aF12.340999999999999
aF2.0613333333333332
aF11.889333333333333
aF1.6329999999999998
aF11.216666666666667
aF1.5
aF10.5
aa(lp236
F6.5
aF10.5
aF6.3409999999999993
aF11.281333333333331
aF5.8893333333333322
aF11.938666666666663
aF5.2166666666666668
aF12.366999999999997
aF4.5
aF12.5
aa(lp237
F3.4999999999999996
aF12.5
aF4.5
aF12.5
aa(lp238
F1.4999999999999998
aF10.5
aF1.4999999999999998
aF3.5
aa(lp239
F6.5
aF10.5
aF6.5
aF3.5
aasS'T'
p240
(lp241
(lp242
F1.4999999999999998
aF3.5
aF6.5
aF3.5
aa(lp243
F3.9999999999999991
aF3.5
aF3.9999999999999991
aF12.5
aasS'V'
p244
(lp245
(lp246
F1.4999999999999998
aF3.5
aF4.5
aF12.5
aa(lp247
F4.5
aF12.5
aF7.4999999999999991
aF3.5
aasS'Y'
p248
(lp249
(lp250
F1.5
aF3.5
aF4.5
aF7.5
aa(lp251
F7.5
aF3.5
aF4.5
aF7.5
aa(lp252
F4.5
aF7.5
aF4.5
aF13.5
aasS'X'
p253
(lp254
(lp255
F1.4999999999999998
aF12.5
aF7.4999999999999991
aF3.5
aa(lp256
F1.4999999999999998
aF3.5
aF7.4999999999999991
aF12.5
aasS'['
p257
(lp258
(lp259
F2.5
aF3.5
aF1.5
aF3.5
aa(lp260
F1.5
aF3.5
aF1.5
aF13.5
aa(lp261
F1.5
aF13.5
aF2.5
aF13.5
aasS'Z'
p262
(lp263
(lp264
F6.5
aF3.5
aF1.4999999999999998
aF12.5
aa(lp265
F6.5
aF12.5
aF1.4999999999999998
aF12.5
aa(lp266
F1.4999999999999998
aF3.5
aF6.5
aF3.5
aasS']'
p267
(lp268
(lp269
F1.5
aF13.5
aF2.5
aF13.5
aa(lp270
F2.5
aF13.5
aF2.5
aF3.5
aa(lp271
F2.5
aF3.5
aF1.5
aF3.5
aasS'a'
p272
(lp273
(lp274
F2.5
aF12.5
aF1.9869999999999997
aF12.409666666666665
aF1.5356666666666667
aF12.149000000000001
aF1.2009999999999998
aF11.75
aF1.0226666666666666
aF11.260333333333334
aF1.0226666666666666
aF10.739666666666665
aF1.2009999999999998
aF10.25
aF1.5356666666666667
aF9.8509999999999991
aF1.9869999999999997
aF9.5903333333333318
aF2.5
aF9.5
aa(lp275
F2.5
aF12.5
aF5.5
aF12.5
aa(lp276
F4.5
aF6.5
aF4.8906666666666654
aF6.5793333333333335
aF5.2193333333333332
aF6.8053333333333335
aF5.4336666666666655
aF7.1416666666666666
aF5.5
aF7.4999999999999991
aa(lp277
F5.5
aF7.4999999999999991
aF5.5
aF12.5
aa(lp278
F2.5
aF9.5
aF5.5
aF9.5
aa(lp279
F4.5
aF6.5
aF1.9999999999999996
aF6.5
aasS'c'
p280
(lp281
(lp282
F3.5
aF12.5
aF2.7186666666666661
aF12.341000000000001
aF2.0613333333333332
aF11.889333333333333
aF1.633
aF11.216666666666667
aF1.5
aF10.5
aa(lp283
F1.5
aF8.4999999999999982
aF1.659
aF7.7186666666666666
aF2.1106666666666665
aF7.0613333333333328
aF2.7833333333333332
aF6.6329999999999991
aF3.5
aF6.5
aa(lp284
F3.5
aF12.5
aF4.5
aF12.5
aa(lp285
F3.5
aF6.5
aF4.5
aF6.5
aa(lp286
F1.4999999999999998
aF8.4999999999999982
aF1.4999999999999998
aF10.5
aasS'b'
p287
(lp288
(lp289
F1.4999999999999998
aF12.5
aF1.4999999999999998
aF3.5
aa(lp290
F3.5
aF6.5
aF4.2813333333333334
aF6.6589999999999989
aF4.9386666666666654
aF7.1106666666666651
aF5.3669999999999991
aF7.7833333333333323
aF5.5
aF8.4999999999999982
aa(lp291
F5.5
aF10.5
aF5.3409999999999993
aF11.281333333333331
aF4.8893333333333322
aF11.938666666666666
aF4.2166666666666659
aF12.366999999999999
aF3.5
aF12.5
aa(lp292
F1.4999999999999998
aF12.5
aF3.5
aF12.5
aa(lp293
F5.5
aF8.4999999999999982
aF5.5
aF10.5
aa(lp294
F1.4999999999999998
aF6.5
aF3.5
aF6.5
aasS'e'
p295
(lp296
(lp297
F1.5
aF8.4999999999999982
aF1.6206666666666665
aF7.8159999999999998
aF1.968
aF7.2143333333333333
aF2.5
aF6.7679999999999989
aF3.1526666666666667
aF6.5303333333333331
aF3.8473333333333328
aF6.5303333333333331
aF4.5
aF6.7679999999999989
aF5.032
aF7.2143333333333333
aF5.3793333333333333
aF7.8159999999999998
aF5.5
aF8.4999999999999982
aa(lp298
F5.5
aF8.4999999999999982
aF5.5
aF9.5
aa(lp299
F5.5
aF9.5
aF1.4999999999999998
aF9.5
aa(lp300
F2.5
aF12.5
aF2.1093333333333333
aF12.420666666666666
aF1.7806666666666666
aF12.194666666666667
aF1.5663333333333334
aF11.858333333333333
aF1.5
aF11.5
aa(lp301
F1.4999999999999998
aF11.5
aF1.4999999999999998
aF8.4999999999999982
aa(lp302
F2.5
aF12.5
aF5.5
aF12.5
aasS'd'
p303
(lp304
(lp305
F3.5
aF12.5
aF2.7186666666666661
aF12.341000000000001
aF2.0613333333333332
aF11.889333333333333
aF1.633
aF11.216666666666667
aF1.5
aF10.5
aa(lp306
F1.5
aF8.4999999999999982
aF1.659
aF7.7186666666666666
aF2.1106666666666665
aF7.0613333333333328
aF2.7833333333333332
aF6.6329999999999991
aF3.5
aF6.5
aa(lp307
F1.4999999999999998
aF8.4999999999999982
aF1.4999999999999998
aF10.5
aa(lp308
F5.5
aF12.5
aF5.5
aF3.5
aa(lp309
F3.5
aF6.5
aF5.5
aF6.5
aa(lp310
F3.5
aF12.5
aF5.5
aF12.5
aasS'g'
p311
(lp312
(lp313
F3.4999999999999996
aF12.5
aF2.7186666666666657
aF12.340999999999999
aF2.0613333333333332
aF11.889333333333333
aF1.6329999999999998
aF11.216666666666667
aF1.5
aF10.5
aa(lp314
F1.5
aF8.4999999999999982
aF1.6589999999999998
aF7.7186666666666666
aF2.1106666666666665
aF7.0613333333333328
aF2.7833333333333328
aF6.6329999999999991
aF3.4999999999999996
aF6.5
aa(lp315
F1.4999999999999996
aF8.4999999999999982
aF1.4999999999999996
aF10.5
aa(lp316
F3.4999999999999996
aF6.5
aF5.5
aF6.5
aa(lp317
F3.4999999999999996
aF12.5
aF5.5
aF12.5
aa(lp318
F5.5
aF6.5
aF5.5
aF13.5
aa(lp319
F5.5
aF13.5
aF5.3409999999999993
aF14.281333333333331
aF4.8893333333333322
aF14.938666666666668
aF4.2166666666666659
aF15.366999999999999
aF3.5
aF15.499999999999998
aa(lp320
F3.5
aF15.499999999999996
aF1.4999999999999998
aF15.499999999999996
aasS'f'
p321
(lp322
(lp323
F2.5
aF12.5
aF2.5
aF5.5
aa(lp324
F1.4999999999999998
aF6.5
aF4.5
aF6.5
aa(lp325
F2.5
aF5.5
aF2.6589999999999998
aF4.7186666666666666
aF3.110666666666666
aF4.0613333333333337
aF3.7833333333333328
aF3.6329999999999996
aF4.5
aF3.5
aasS'i'
p326
(lp327
(lp328
F1.5
aF3.5
aF1.5
aF3.5
aa(lp329
F1.5
aF5.5
aF1.5
aF12.5
aasS'h'
p330
(lp331
(lp332
F1.4999999999999998
aF12.5
aF1.4999999999999998
aF3.5
aa(lp333
F3.5
aF6.5
aF4.2813333333333334
aF6.6589999999999989
aF4.9386666666666654
aF7.1106666666666651
aF5.3669999999999991
aF7.7833333333333323
aF5.5
aF8.4999999999999982
aa(lp334
F3.5
aF6.5
aF1.4999999999999998
aF6.5
aa(lp335
F5.5
aF8.4999999999999982
aF5.5
aF12.5
aa(lp336
F5.5
aF12.5
aF5.5
aF12.5
aasS'k'
p337
(lp338
(lp339
F1.4999999999999998
aF3.5
aF1.4999999999999998
aF12.5
aa(lp340
F5.5
aF6.5
aF1.4999999999999998
aF10.5
aa(lp341
F5.5
aF12.5
aF3.0333333333333332
aF9.0333333333333332
aasS'j'
p342
(lp343
(lp344
F3.5
aF10.5
aF3.3410000000000002
aF11.281333333333331
aF2.8893333333333335
aF11.938666666666666
aF2.2166666666666668
aF12.366999999999999
aF1.5
aF12.5
aa(lp345
F3.5
aF3.5
aF3.5
aF3.5
aa(lp346
F3.5
aF5.5
aF3.5
aF10.5
aasS'm'
p347
(lp348
(lp349
F1.4999999999999998
aF12.5
aF1.4999999999999998
aF6.5
aa(lp350
F1.4999999999999998
aF6.5
aF5.5
aF6.5
aa(lp351
F5.5
aF6.5
aF6.2813333333333334
aF6.6589999999999989
aF6.9386666666666663
aF7.1106666666666651
aF7.367
aF7.7833333333333323
aF7.4999999999999991
aF8.4999999999999982
aa(lp352
F4.5
aF6.5
aF4.5
aF12.5
aa(lp353
F7.4999999999999991
aF8.4999999999999982
aF7.4999999999999991
aF12.5
aasS'l'
p354
(lp355
(lp356
F2.5
aF12.5
aF2.1093333333333333
aF12.420666666666666
aF1.7806666666666666
aF12.194666666666667
aF1.5663333333333334
aF11.858333333333333
aF1.5
aF11.5
aa(lp357
F1.4999999999999998
aF11.5
aF1.4999999999999998
aF3.5
aasS'o'
p358
(lp359
(lp360
F5.5
aF10.5
aF5.3793333333333333
aF11.183999999999997
aF5.032
aF11.785666666666664
aF4.5
aF12.231999999999999
aF3.8473333333333328
aF12.469666666666665
aF3.1526666666666667
aF12.469666666666665
aF2.5
aF12.231999999999999
aF1.968
aF11.785666666666664
aF1.6206666666666665
aF11.183999999999997
aF1.5
aF10.5
aa(lp361
F1.5
aF8.4999999999999982
aF1.6206666666666665
aF7.8159999999999998
aF1.968
aF7.2143333333333333
aF2.5
aF6.7679999999999989
aF3.1526666666666667
aF6.5303333333333331
aF3.8473333333333328
aF6.5303333333333331
aF4.5
aF6.7679999999999989
aF5.032
aF7.2143333333333333
aF5.3793333333333333
aF7.8159999999999998
aF5.5
aF8.4999999999999982
aa(lp362
F1.4999999999999998
aF8.4999999999999982
aF1.4999999999999998
aF10.5
aa(lp363
F5.5
aF8.4999999999999982
aF5.5
aF10.5
aasS'n'
p364
(lp365
(lp366
F1.4999999999999998
aF12.5
aF1.4999999999999998
aF6.5
aa(lp367
F3.5
aF6.5
aF4.2813333333333334
aF6.6589999999999989
aF4.9386666666666654
aF7.1106666666666651
aF5.3669999999999991
aF7.7833333333333323
aF5.5
aF8.4999999999999982
aa(lp368
F1.4999999999999998
aF6.5
aF3.5
aF6.5
aa(lp369
F5.5
aF8.4999999999999982
aF5.5
aF12.5
aasS'q'
p370
(lp371
(lp372
F1.4999999999999996
aF8.4999999999999982
aF1.4999999999999996
aF10.5
aa(lp373
F3.5
aF12.5
aF2.7186666666666661
aF12.341000000000001
aF2.0613333333333332
aF11.889333333333333
aF1.633
aF11.216666666666667
aF1.5
aF10.5
aa(lp374
F1.5
aF8.4999999999999982
aF1.659
aF7.7186666666666666
aF2.1106666666666665
aF7.0613333333333328
aF2.7833333333333332
aF6.6329999999999991
aF3.5
aF6.5
aa(lp375
F5.5
aF6.5
aF5.5
aF15.499999999999996
aa(lp376
F3.5
aF12.5
aF5.5
aF12.5
aa(lp377
F3.5
aF6.5
aF5.5
aF6.5
aasS'p'
p378
(lp379
(lp380
F1.4999999999999996
aF8.4999999999999982
aF1.4999999999999996
aF10.5
aa(lp381
F5.5
aF8.4999999999999982
aF5.5
aF10.5
aa(lp382
F1.4999999999999998
aF15.499999999999996
aF1.4999999999999998
aF6.5
aa(lp383
F1.4999999999999998
aF6.5
aF3.5
aF6.5
aa(lp384
F1.4999999999999998
aF12.5
aF3.5
aF12.5
aa(lp385
F3.5
aF6.5
aF4.2813333333333334
aF6.6589999999999989
aF4.9386666666666654
aF7.1106666666666651
aF5.3669999999999991
aF7.7833333333333323
aF5.5
aF8.4999999999999982
aa(lp386
F5.5
aF10.5
aF5.3409999999999993
aF11.281333333333331
aF4.8893333333333322
aF11.938666666666666
aF4.2166666666666659
aF12.366999999999999
aF3.5
aF12.5
aasS's'
p387
(lp388
(lp389
F5.5
aF7.0
aF4.5
aF6.5
aa(lp390
F4.5
aF6.5
aF2.5
aF6.5
aa(lp391
F2.5
aF6.5
aF1.5
aF7.0
aa(lp392
F1.5
aF7.0
aF1.5
aF7.9999999999999982
aa(lp393
F1.5
aF7.9999999999999982
aF1.9999999999999996
aF8.4999999999999982
aa(lp394
F1.5
aF12.0
aF2.5
aF12.5
aa(lp395
F2.5
aF12.5
aF4.5
aF12.5
aa(lp396
F4.5
aF12.5
aF5.5
aF12.0
aa(lp397
F5.5
aF12.0
aF5.5
aF11.0
aa(lp398
F5.5
aF11.0
aF5.0
aF10.5
aa(lp399
F1.9999999999999996
aF8.4999999999999982
aF5.0
aF10.5
aasS'r'
p400
(lp401
(lp402
F1.4999999999999998
aF12.5
aF1.4999999999999998
aF6.5
aa(lp403
F3.5
aF6.5
aF3.8906666666666663
aF6.5793333333333335
aF4.2193333333333332
aF6.8053333333333335
aF4.4336666666666655
aF7.1416666666666666
aF4.5
aF7.4999999999999991
aa(lp404
F1.4999999999999998
aF6.5
aF3.5
aF6.5
aasS'u'
p405
(lp406
(lp407
F3.5
aF12.5
aF2.7186666666666661
aF12.341000000000001
aF2.0613333333333332
aF11.889333333333333
aF1.633
aF11.216666666666667
aF1.5
aF10.5
aa(lp408
F1.4999999999999998
aF10.5
aF1.4999999999999998
aF6.5
aa(lp409
F5.5
aF12.5
aF5.5
aF6.5
aa(lp410
F3.5
aF12.5
aF5.5
aF12.5
aasS't'
p411
(lp412
(lp413
F2.5
aF12.5
aF2.5
aF3.5
aa(lp414
F1.4999999999999998
aF6.5
aF4.5
aF6.5
aasS'w'
p415
(lp416
(lp417
F1.4999999999999998
aF6.5
aF3.0
aF12.5
aa(lp418
F3.0
aF12.5
aF4.5
aF8.4999999999999982
aa(lp419
F4.5
aF8.4999999999999982
aF6.0
aF12.5
aa(lp420
F6.0
aF12.5
aF7.4999999999999991
aF6.5
aasS'v'
p421
(lp422
(lp423
F1.4999999999999998
aF6.5
aF3.5
aF12.5
aa(lp424
F3.5
aF12.5
aF5.5
aF6.5
aasS'y'
p425
(lp426
(lp427
F5.5
aF6.5
aF2.5
aF14.999999999999996
aa(lp428
F2.5
aF14.999999999999996
aF1.9999999999999996
aF15.499999999999996
aa(lp429
F1.9999999999999996
aF15.499999999999996
aF1.4999999999999998
aF15.499999999999996
aa(lp430
F1.4999999999999998
aF6.5
aF3.4333333333333331
aF12.5
aasS'x'
p431
(lp432
(lp433
F1.4999999999999998
aF6.5
aF5.5
aF12.5
aa(lp434
F1.4999999999999998
aF12.5
aF5.5
aF6.5
aasS'z'
p435
(lp436
(lp437
F1.4999999999999998
aF6.5
aF5.5
aF6.5
aa(lp438
F5.5
aF6.5
aF1.4999999999999998
aF12.5
aa(lp439
F1.4999999999999998
aF12.5
aF5.5
aF12.5
aas.