(dp0
S'!'
p1
(lp2
(lp3
F2.5
aF12.5
aF2.5
aF12.5
aa(lp4
F2.5
aF10.5
aF2.5
aF3.5
aasS'"'
p5
(lp6
(lp7
F1.5
aF5.5
aF2.5
aF3.5
aa(lp8
F5.5
aF3.5
aF4.5
aF5.5
aasS'$'
p9
(lp10
(lp11
F6.5
aF10.5
aF6.3409999999999993
aF11.281333333333331
aF5.8893333333333322
aF11.938666666666666
aF5.2166666666666668
aF12.366999999999999
aF4.5
aF12.5
aa(lp12
F1.5
aF12.0
aF3.0
aF12.5
aa(lp13
F3.0
aF12.5
aF4.5
aF12.5
aa(lp14
F6.5
aF3.9999999999999991
aF5.0
aF3.5
aa(lp15
F5.0
aF3.5
aF5.0
aF3.5
aa(lp16
F5.0
aF3.5
aF3.5
aF3.5
aa(lp17
F1.5
aF5.5
aF1.659
aF4.7186666666666666
aF2.1106666666666665
aF4.0613333333333337
aF2.7833333333333332
aF3.6329999999999991
aF3.5
aF3.5
aa(lp18
F6.0
aF9.5
aF6.5
aF10.5
aa(lp19
F1.4999999999999998
aF5.5
aF1.9999999999999996
aF6.5
aa(lp20
F1.9999999999999996
aF6.5
aF6.0
aF9.5
aa(lp21
F4.0
aF2.5
aF4.0
aF13.5
aasS'+'
p22
(lp23
(lp24
F1.5
aF11.5
aF5.5
aF11.5
aa(lp25
F3.5
aF13.5
aF3.5
aF9.5
aasS'-'
p26
(lp27
(lp28
F1.5
aF9.5
aF5.5
aF9.5
aasS'1'
p29
(lp30
(lp31
F3.5
aF3.5
aF1.4999999999999998
aF5.5
aa(lp32
F3.5
aF3.5
aF3.5
aF12.5
aasS'3'
p33
(lp34
(lp35
F3.5
aF3.5
aF4.1839999999999993
aF3.6206666666666663
aF4.7856666666666667
aF3.968
aF5.2320000000000002
aF4.5
aF5.4696666666666669
aF5.1526666666666658
aF5.4696666666666669
aF5.8473333333333333
aF5.2320000000000002
aF6.5
aF4.7856666666666667
aF7.032
aF4.1839999999999993
aF7.3793333333333333
aF3.5
aF7.4999999999999991
aa(lp36
F3.5
aF7.4999999999999991
aF4.2813333333333334
aF7.6589999999999989
aF4.9386666666666654
aF8.1106666666666651
aF5.3669999999999991
aF8.7833333333333332
aF5.5
aF9.5
aa(lp37
F5.5
aF10.5
aF5.3409999999999993
aF11.281333333333331
aF4.8893333333333322
aF11.938666666666666
aF4.2166666666666659
aF12.366999999999999
aF3.5
aF12.5
aa(lp38
F5.5
aF9.5
aF5.5
aF10.5
aa(lp39
F3.5
aF12.5
aF1.4999999999999998
aF12.5
aa(lp40
F3.5
aF3.5
aF1.4999999999999998
aF3.5
aa(lp41
F3.5
aF7.4999999999999991
aF2.5
aF7.4999999999999991
aasS'2'
p42
(lp43
(lp44
F1.4903333333333333
aF4.5196666666666667
aF1.9749999999999996
aF3.8646666666666665
aF2.6623333333333337
aF3.4266666666666659
aF3.4609999999999999
aF3.2643333333333331
aF4.2646666666666668
aF3.3986666666666658
aF4.9669999999999987
aF3.8123333333333331
aF5.4743333333333331
aF4.4503333333333321
aF5.4923333333333328
aF4.4850000000000003
aa(lp45
F5.5
aF4.5
aF5.5
aF5.5
aa(lp46
F5.5
aF5.5
aF1.4999999999999998
aF12.5
aa(lp47
F1.4999999999999998
aF12.5
aF5.5
aF12.5
aasS'5'
p48
(lp49
(lp50
F5.5
aF3.5
aF1.4999999999999998
aF3.5
aa(lp51
F1.4999999999999998
aF7.4999999999999991
aF1.4999999999999998
aF3.5
aa(lp52
F3.5
aF7.4999999999999991
aF4.2813333333333334
aF7.6589999999999989
aF4.9386666666666654
aF8.1106666666666651
aF5.3669999999999991
aF8.7833333333333332
aF5.5
aF9.5
aa(lp53
F5.5
aF10.5
aF5.3409999999999993
aF11.281333333333331
aF4.8893333333333322
aF11.938666666666666
aF4.2166666666666659
aF12.366999999999999
aF3.5
aF12.5
aa(lp54
F3.5
aF12.5
aF1.4999999999999998
aF12.5
aa(lp55
F5.5
aF10.5
aF5.5
aF9.5
aa(lp56
F3.5
aF7.4999999999999991
aF1.4999999999999998
aF7.4999999999999991
aasS'4'
p57
(lp58
(lp59
F5.0
aF12.5
aF5.0
aF8.4999999999999982
aa(lp60
F6.5
aF10.5
aF1.4999999999999998
aF10.5
aa(lp61
F1.4999999999999998
aF10.5
aF3.5
aF3.5
aasS'7'
p62
(lp63
(lp64
F1.4999999999999998
aF3.5
aF1.4999999999999998
aF2.5
aa(lp65
F1.4999999999999998
aF2.5
aF5.5
aF2.5
aa(lp66
F5.5
aF2.5
aF3.0
aF12.5
aasS'6'
p67
(lp68
(lp69
F5.5
aF10.5
aF5.3793333333333333
aF11.183999999999997
aF5.032
aF11.785666666666664
aF4.5
aF12.231999999999999
aF3.8473333333333328
aF12.469666666666665
aF3.1526666666666667
aF12.469666666666665
aF2.5
aF12.231999999999999
aF1.968
aF11.785666666666664
aF1.6206666666666665
aF11.183999999999997
aF1.5
aF10.5
aa(lp70
F3.5
aF7.4999999999999991
aF4.2813333333333334
aF7.6589999999999989
aF4.9386666666666654
aF8.1106666666666651
aF5.3669999999999991
aF8.7833333333333332
aF5.5
aF9.5
aa(lp71
F1.4999999999999998
aF10.5
aF1.4999999999999998
aF8.4999999999999982
aa(lp72
F1.4999999999999998
aF8.4999999999999982
aF1.9999999999999996
aF6.5
aa(lp73
F1.9999999999999996
aF6.5
aF3.5
aF4.5
aa(lp74
F3.5
aF4.5
aF4.5
aF3.5
aa(lp75
F3.5
aF7.4999999999999991
aF1.7333333333333334
aF7.5333333333333323
aa(lp76
F5.5
aF9.5
aF5.5
aF10.5
aasS'9'
p77
(lp78
(lp79
F1.5
aF5.5
aF1.6206666666666665
aF4.8159999999999998
aF1.968
aF4.2143333333333333
aF2.5
aF3.7680000000000002
aF3.1526666666666667
aF3.5303333333333327
aF3.8473333333333328
aF3.5303333333333327
aF4.5
aF3.7680000000000002
aF5.032
aF4.2143333333333333
aF5.3793333333333333
aF4.8159999999999998
aF5.5
aF5.5
aa(lp80
F3.5
aF8.4999999999999982
aF2.7186666666666661
aF8.3409999999999993
aF2.0613333333333332
aF7.8893333333333331
aF1.633
aF7.2166666666666668
aF1.5
aF6.5
aa(lp81
F1.4999999999999998
aF6.5
aF1.4999999999999998
aF5.5
aa(lp82
F5.5
aF5.5
aF5.5
aF7.4999999999999991
aa(lp83
F5.5
aF7.4999999999999991
aF5.0
aF9.5
aa(lp84
F5.0
aF9.5
aF3.5
aF11.5
aa(lp85
F3.5
aF11.5
aF2.5
aF12.5
aa(lp86
F3.5
aF8.4999999999999982
aF5.2000000000000002
aF8.4333333333333318
aasS'8'
p87
(lp88
(lp89
F1.5
aF5.5
aF1.6206666666666665
aF4.8159999999999998
aF1.968
aF4.2143333333333333
aF2.5
aF3.7680000000000002
aF3.1526666666666667
aF3.5303333333333327
aF3.8473333333333328
aF3.5303333333333327
aF4.5
aF3.7680000000000002
aF5.032
aF4.2143333333333333
aF5.3793333333333333
aF4.8159999999999998
aF5.5
aF5.5
aF5.3793333333333333
aF6.1839999999999993
aF5.032
aF6.785666666666665
aF4.5
aF7.2320000000000002
aF3.8473333333333328
aF7.469666666666666
aF3.1526666666666667
aF7.469666666666666
aF2.5
aF7.2320000000000002
aF1.968
aF6.785666666666665
aF1.6206666666666665
aF6.1839999999999993
aF1.5
aF5.5
aa(lp90
F1.5
aF9.5
aF1.6206666666666665
aF8.8160000000000007
aF1.968
aF8.2143333333333342
aF2.5
aF7.7679999999999989
aF3.1526666666666667
aF7.5303333333333331
aF3.8473333333333328
aF7.5303333333333331
aF4.5
aF7.7679999999999989
aF5.032
aF8.2143333333333342
aF5.3793333333333333
aF8.8160000000000007
aF5.5
aF9.5
aa(lp91
F5.5
aF10.5
aF5.3793333333333333
aF11.183999999999997
aF5.032
aF11.785666666666664
aF4.5
aF12.231999999999999
aF3.8473333333333328
aF12.469666666666665
aF3.1526666666666667
aF12.469666666666665
aF2.5
aF12.231999999999999
aF1.968
aF11.785666666666664
aF1.6206666666666665
aF11.183999999999997
aF1.5
aF10.5
aa(lp92
F1.4999999999999998
aF10.5
aF1.4999999999999998
aF9.5
aa(lp93
F5.5
aF9.5
aF5.5
aF10.5
aasS';'
p94
(lp95
(lp96
F1.5
aF13.5
aF2.5
aF11.5
aa(lp97
F2.5
aF7.5
aF2.5
aF7.5
aasS':'
p98
(lp99
(lp100
F1.5
aF13.5
aF1.5
aF13.5
aa(lp101
F1.5
aF9.5
aF1.5
aF9.5
aasS'='
p102
(lp103
(lp104
F1.5
aF8.5
aF5.5
aF8.5
aa(lp105
F1.5
aF10.5
aF5.5
aF10.5
aasS'A'
p106
(lp107
(lp108
F1.4999999999999998
aF12.5
aF4.5
aF3.5
aa(lp109
F4.5
aF3.5
aF7.4999999999999991
aF12.5
aa(lp110
F2.5
aF10.0
aF6.5
aF10.0
aasS'C'
p111
(lp112
(lp113
F1.5
aF5.5
aF1.6589999999999998
aF4.7186666666666666
aF2.1106666666666665
aF4.0613333333333337
aF2.7833333333333328
aF3.6329999999999991
aF3.4999999999999996
aF3.4999999999999996
aa(lp114
F3.4999999999999996
aF3.4999999999999996
aF5.5
aF3.4999999999999996
aa(lp115
F3.5
aF12.5
aF2.7186666666666661
aF12.341000000000001
aF2.0613333333333332
aF11.889333333333333
aF1.633
aF11.216666666666667
aF1.5
aF10.5
aa(lp116
F1.4999999999999998
aF5.5
aF1.4999999999999998
aF10.5
aa(lp117
F3.5
aF12.5
aF5.5
aF12.5
aasS'B'
p118
(lp119
(lp120
F1.4999999999999996
aF12.500000000000002
aF1.4999999999999996
aF3.4999999999999996
aa(lp121
F1.4999999999999996
aF7.4999999999999991
aF4.5
aF7.4999999999999991
aa(lp122
F4.4986666666666668
aF3.4996666666666654
aF5.2116666666666651
aF3.8323333333333327
aF5.7483333333333313
aF4.4076666666666675
aF6.0303333333333313
aF5.1419999999999977
aF6.0166666666666666
aF5.9286666666666674
aF5.7089999999999996
aF6.6526666666666658
aF5.1526666666666658
aF7.2089999999999987
aF4.5336666666666661
aF7.4913333333333325
aa(lp123
F1.4999999999999996
aF3.4999999999999996
aF4.5
aF3.4999999999999996
aa(lp124
F1.4999999999999996
aF12.500000000000002
aF4.5
aF12.500000000000002
aa(lp125
F4.5
aF7.4999999999999991
aF5.3550000000000004
aF7.6506666666666661
aF6.1070000000000002
aF8.0850000000000009
aF6.6649999999999983
aF8.75
aF6.9619999999999997
aF9.5660000000000007
aF6.9619999999999997
aF10.433999999999997
aF6.6649999999999983
aF11.25
aF6.1070000000000002
aF11.914999999999997
aF5.3550000000000004
aF12.349333333333334
aF4.5
aF12.5
aasS'E'
p126
(lp127
(lp128
F1.4999999999999998
aF12.5
aF1.4999999999999998
aF3.5
aa(lp129
F1.4999999999999998
aF7.4999999999999991
aF4.5
aF7.4999999999999991
aa(lp130
F1.4999999999999998
aF3.5
aF5.5
aF3.5
aa(lp131
F1.4999999999999998
aF12.5
aF5.5
aF12.5
aasS'D'
p132
(lp133
(lp134
F1.4999999999999998
aF12.500000000000002
aF1.4999999999999998
aF3.5
aa(lp135
F1.4999999999999998
aF3.5
aF4.5
aF3.5
aa(lp136
F1.4999999999999998
aF12.500000000000002
aF4.5
aF12.500000000000002
aa(lp137
F1.4999999999999998
aF12.500000000000002
aF1.4999999999999998
aF3.4999999999999996
aa(lp138
F1.4999999999999998
aF3.4999999999999996
aF4.5
aF3.4999999999999996
aa(lp139
F1.4999999999999998
aF12.500000000000002
aF4.5
aF12.500000000000002
aa(lp140
F4.5
aF3.5
aF5.2813333333333334
aF3.6589999999999998
aF5.9386666666666654
aF4.110666666666666
aF6.367
aF4.7833333333333332
aF6.5
aF5.5000000000000009
aa(lp141
F6.5
aF5.5000000000000009
aF6.5
aF10.5
aa(lp142
F6.5
aF10.5
aF6.3409999999999993
aF11.281333333333331
aF5.8893333333333331
aF11.938666666666666
aF5.2166666666666668
aF12.367000000000001
aF4.5
aF12.500000000000002
aasS'G'
p143
(lp144
(lp145
F1.5
aF5.5
aF1.6589999999999998
aF4.7186666666666666
aF2.1106666666666665
aF4.0613333333333337
aF2.7833333333333328
aF3.6329999999999991
aF3.4999999999999996
aF3.4999999999999996
aa(lp146
F3.5
aF12.5
aF2.7186666666666661
aF12.341000000000001
aF2.0613333333333332
aF11.889333333333333
aF1.633
aF11.216666666666667
aF1.5
aF10.5
aa(lp147
F1.4999999999999998
aF5.5
aF1.4999999999999998
aF10.5
aa(lp148
F3.5
aF3.5
aF6.5
aF3.5
aa(lp149
F3.5
aF12.5
aF6.5
aF12.5
aa(lp150
F6.5
aF12.5
aF6.5
aF7.4999999999999991
aa(lp151
F6.5
aF7.4999999999999991
aF5.5
aF7.4999999999999991
aasS'F'
p152
(lp153
(lp154
F1.5
aF3.566666666666666
aF1.5000000000000002
aF12.499999999999996
aa(lp155
F1.4999999999999998
aF3.5
aF5.5
aF3.5
aa(lp156
F1.4999999999999998
aF7.4999999999999991
aF5.5
aF7.4999999999999991
aasS'I'
p157
(lp158
(lp159
F1.4999999999999998
aF12.500000000000002
aF1.4999999999999998
aF3.5
aasS'H'
p160
(lp161
(lp162
F1.5
aF3.566666666666666
aF1.5000000000000002
aF12.499999999999996
aa(lp163
F6.5
aF3.5
aF6.5
aF12.5
aa(lp164
F1.4999999999999998
aF7.4999999999999991
aF6.5
aF7.4999999999999991
aasS'K'
p165
(lp166
(lp167
F1.4999999999999998
aF12.5
aF1.4999999999999998
aF3.5
aa(lp168
F6.5
aF3.5
aF1.4999999999999998
aF9.5
aa(lp169
F6.5
aF12.5
aF3.0333333333333332
aF7.6999999999999993
aasS'J'
p170
(lp171
(lp172
F1.4999999999999998
aF12.5
aF2.5
aF12.5
aa(lp173
F4.5
aF10.5
aF4.3409999999999993
aF11.281333333333331
aF3.8893333333333331
aF11.938666666666666
aF3.2166666666666668
aF12.366999999999999
aF2.5
aF12.5
aa(lp174
F4.5
aF10.5
aF4.5
aF3.5
aasS'M'
p175
(lp176
(lp177
F1.4999999999999998
aF12.5
aF1.4999999999999998
aF3.5
aa(lp178
F1.4999999999999998
aF3.5
aF4.5
aF8.4999999999999982
aa(lp179
F4.5
aF8.4999999999999982
aF7.4999999999999991
aF3.5
aa(lp180
F7.4999999999999991
aF3.5
aF7.4999999999999991
aF12.5
aasS'L'
p181
(lp182
(lp183
F1.4999999999999996
aF12.5
aF1.4999999999999996
aF3.4999999999999996
aa(lp184
F1.4999999999999998
aF12.5
aF5.5
aF12.5
aasS'O'
p185
(lp186
(lp187
F1.5
aF5.5
aF1.6589999999999996
aF4.7186666666666666
aF2.1106666666666665
aF4.0613333333333337
aF2.7833333333333328
aF3.6329999999999987
aF3.4999999999999991
aF3.4999999999999991
aa(lp188
F3.5
aF12.5
aF2.7186666666666661
aF12.341000000000001
aF2.0613333333333332
aF11.889333333333333
aF1.633
aF11.216666666666667
aF1.5
aF10.5
aa(lp189
F6.5
aF10.5
aF6.3409999999999993
aF11.281333333333331
aF5.8893333333333322
aF11.938666666666666
aF5.2166666666666668
aF12.366999999999999
aF4.5
aF12.5
aa(lp190
F4.5
aF3.5
aF5.2813333333333334
aF3.6589999999999994
aF5.9386666666666654
aF4.110666666666666
aF6.367
aF4.7833333333333332
aF6.5
aF5.5
aa(lp191
F1.4999999999999998
aF5.5
aF1.4999999999999998
aF10.5
aa(lp192
F3.5
aF12.5
aF4.5
aF12.5
aa(lp193
F6.5
aF5.5
aF6.5
aF10.5
aa(lp194
F3.5
aF3.5
aF4.5
aF3.5
aasS'N'
p195
(lp196
(lp197
F1.4999999999999998
aF12.5
aF1.4999999999999998
aF3.5
aa(lp198
F1.4999999999999998
aF3.5
aF6.5
aF12.5
aa(lp199
F6.5
aF12.5
aF6.5
aF3.5
aasS'Q'
p200
(lp201
(lp202
F1.5
aF5.5
aF1.6589999999999996
aF4.7186666666666666
aF2.1106666666666665
aF4.0613333333333337
aF2.7833333333333328
aF3.6329999999999987
aF3.4999999999999991
aF3.4999999999999991
aa(lp203
F3.4999999999999996
aF12.5
aF2.7186666666666657
aF12.340999999999999
aF2.0613333333333332
aF11.889333333333333
aF1.6329999999999998
aF11.216666666666667
aF1.5
aF10.5
aa(lp204
F6.5
aF10.5
aF6.3409999999999993
aF11.281333333333331
aF5.8893333333333322
aF11.938666666666663
aF5.2166666666666668
aF12.366999999999997
aF4.5
aF12.5
aa(lp205
F4.5
aF3.4999999999999996
aF5.2813333333333325
aF3.6589999999999989
aF5.9386666666666654
aF4.1106666666666651
aF6.367
aF4.7833333333333332
aF6.5
aF5.5
aa(lp206
F1.4999999999999996
aF5.5
aF1.4999999999999996
aF10.5
aa(lp207
F3.4999999999999996
aF12.5
aF4.5
aF12.5
aa(lp208
F6.5
aF5.5
aF6.5
aF10.5
aa(lp209
F3.4999999999999996
aF3.4999999999999996
aF4.5
aF3.4999999999999996
aa(lp210
F4.5
aF10.5
aF7.4999999999999991
aF12.5
aasS'P'
p211
(lp212
(lp213
F1.4999999999999998
aF12.5
aF1.4999999999999998
aF3.5
aa(lp214
F4.5
aF3.5
aF5.3550000000000004
aF3.6506666666666661
aF6.1070000000000002
aF4.0849999999999991
aF6.6649999999999983
aF4.75
aF6.9619999999999997
aF5.5659999999999998
aF6.9619999999999997
aF6.4339999999999993
aF6.6649999999999983
aF7.2499999999999991
aF6.1070000000000002
aF7.9149999999999983
aF5.3550000000000004
aF8.3493333333333322
aF4.5
aF8.4999999999999982
aa(lp215
F1.4999999999999998
aF8.4999999999999982
aF4.5
aF8.4999999999999982
aa(lp216
F1.4999999999999998
aF3.5
aF4.5
aF3.5
aasS'S'
p217
(lp218
(lp219
F6.5
aF10.5
aF6.3409999999999993
aF11.281333333333331
aF5.8893333333333322
aF11.938666666666666
aF5.2166666666666668
aF12.366999999999999
aF4.5
aF12.5
aa(lp220
F1.5
aF12.0
aF3.0
aF12.5
aa(lp221
F3.0
aF12.5
aF4.5
aF12.5
aa(lp222
F6.5
aF3.9999999999999991
aF5.0
aF3.5
aa(lp223
F5.0
aF3.5
aF5.0
aF3.5
aa(lp224
F5.0
aF3.5
aF3.5
aF3.5
aa(lp225
F1.5
aF5.5
aF1.659
aF4.7186666666666666
aF2.1106666666666665
aF4.0613333333333337
aF2.7833333333333332
aF3.6329999999999996
aF3.5
aF3.5
aa(lp226
F6.0
aF9.5
aF6.5
aF10.5
aa(lp227
F1.4999999999999998
aF5.5
aF1.9999999999999996
aF6.5
aa(lp228
F1.9999999999999996
aF6.5
aF6.0
aF9.5
aasS'R'
p229
(lp230
(lp231
F1.4999999999999996
aF12.5
aF1.4999999999999996
aF3.4999999999999996
aa(lp232
F4.5
aF3.4999999999999996
aF5.3550000000000004
aF3.6506666666666656
aF6.1069999999999993
aF4.0849999999999991
aF6.6649999999999974
aF4.75
aF6.9619999999999989
aF5.5659999999999998
aF6.9619999999999989
aF6.4339999999999993
aF6.6649999999999974
aF7.2499999999999982
aF6.1069999999999993
aF7.9149999999999974
aF5.3550000000000004
aF8.3493333333333322
aF4.5
aF8.4999999999999982
aa(lp233
F1.4999999999999996
aF8.4999999999999982
aF4.5
aF8.4999999999999982
aa(lp234
F1.4999999999999996
aF3.4999999999999996
aF4.5
aF3.4999999999999996
aa(lp235
F6.5
aF12.5
aF4.5
aF8.4999999999999982
aasS'U'
p236
(lp237
(lp238
F3.4999999999999996
aF12.5
aF2.7186666666666657
aF12.340999999999999
aF2.0613333333333332
aF11.889333333333333
aF1.6329999999999998
aF11.216666666666667
aF1.5
aF10.5
aa(lp239
F6.5
aF10.5
aF6.3409999999999993
aF11.281333333333331
aF5.8893333333333322
aF11.938666666666663
aF5.2166666666666668
aF12.366999999999997
aF4.5
aF12.5
aa(lp240
F3.4999999999999996
aF12.5
aF4.5
aF12.5
aa(lp241
F1.4999999999999998
aF10.5
aF1.4999999999999998
aF3.5
aa(lp242
F6.5
aF10.5
aF6.5
aF3.5
aasS'T'
p243
(lp244
(lp245
F1.4999999999999998
aF3.5
aF6.5
aF3.5
aa(lp246
F3.9999999999999991
aF3.5
aF3.9999999999999991
aF12.5
aasS'W'
p247
(lp248
(lp249
F1.4999999999999998
aF3.5
aF3.5
aF12.5
aa(lp250
F3.5
aF12.5
aF5.5
aF7.4999999999999991
aa(lp251
F5.5
aF7.4999999999999991
aF7.4999999999999991
aF12.5
aa(lp252
F7.4999999999999991
aF12.5
aF9.5
aF3.5
aasS'V'
p253
(lp254
(lp255
F1.4999999999999998
aF3.5
aF4.5
aF12.5
aa(lp256
F4.5
aF12.5
aF7.4999999999999991
aF3.5
aasS'Y'
p257
(lp258
(lp259
F1.5
aF3.5
aF4.5
aF7.5
aa(lp260
F7.5
aF3.5
aF4.5
aF7.5
aa(lp261
F4.5
aF7.5
aF4.5
aF13.5
aasS'X'
p262
(lp263
(lp264
F1.4999999999999998
aF12.5
aF7.4999999999999991
aF3.5
aa(lp265
F1.4999999999999998
aF3.5
aF7.4999999999999991
aF12.5
aasS'['
p266
(lp267
(lp268
F2.5
aF3.5
aF1.5
aF3.5
aa(lp269
F1.5
aF3.5
aF1.5
aF13.5
aa(lp270
F1.5
aF13.5
aF2.5
aF13.5
aasS'Z'
p271
(lp272
(lp273
F6.5
aF3.5
aF1.4999999999999998
aF12.5
aa(lp274
F6.5
aF12.5
aF1.4999999999999998
aF12.5
aa(lp275
F1.4999999999999998
aF3.5
aF6.5
aF3.5
aasS']'
p276
(lp277
(lp278
F1.5
aF13.5
aF2.5
aF13.5
aa(lp279
F2.5
aF13.5
aF2.5
aF3.5
aa(lp280
F2.5
aF3.5
aF1.5
aF3.5
aasS'a'
p281
(lp282
(lp283
F2.5
aF12.5
aF1.9869999999999997
aF12.409666666666665
aF1.5356666666666667
aF12.149000000000001
aF1.2009999999999998
aF11.75
aF1.0226666666666666
aF11.260333333333334
aF1.0226666666666666
aF10.739666666666665
aF1.2009999999999998
aF10.25
aF1.5356666666666667
aF9.8509999999999991
aF1.9869999999999997
aF9.5903333333333318
aF2.5
aF9.5
aa(lp284
F2.5
aF12.5
aF5.5
aF12.5
aa(lp285
F4.5
aF6.5
aF4.8906666666666654
aF6.5793333333333335
aF5.2193333333333332
aF6.8053333333333335
aF5.4336666666666655
aF7.1416666666666666
aF5.5
aF7.4999999999999991
aa(lp286
F5.5
aF7.4999999999999991
aF5.5
aF12.5
aa(lp287
F2.5
aF9.5
aF5.5
aF9.5
aa(lp288
F4.5
aF6.5
aF1.9999999999999996
aF6.5
aasS'c'
p289
(lp290
(lp291
F3.5
aF12.5
aF2.7186666666666661
aF12.341000000000001
aF2.0613333333333332
aF11.889333333333333
aF1.633
aF11.216666666666667
aF1.5
aF10.5
aa(lp292
F1.5
aF8.4999999999999982
aF1.659
aF7.7186666666666666
aF2.1106666666666665
aF7.0613333333333328
aF2.7833333333333332
aF6.6329999999999991
aF3.5
aF6.5
aa(lp293
F3.5
aF12.5
aF4.5
aF12.5
aa(lp294
F3.5
aF6.5
aF4.5
aF6.5
aa(lp295
F1.4999999999999998
aF8.4999999999999982
aF1.4999999999999998
aF10.5
aasS'b'
p296
(lp297
(lp298
F1.4999999999999998
aF12.5
aF1.4999999999999998
aF3.5
aa(lp299
F3.5
aF6.5
aF4.2813333333333334
aF6.6589999999999989
aF4.9386666666666654
aF7.1106666666666651
aF5.3669999999999991
aF7.7833333333333323
aF5.5
aF8.4999999999999982
aa(lp300
F5.5
aF10.5
aF5.3409999999999993
aF11.281333333333331
aF4.8893333333333322
aF11.938666666666666
aF4.2166666666666659
aF12.366999999999999
aF3.5
aF12.5
aa(lp301
F1.4999999999999998
aF12.5
aF3.5
aF12.5
aa(lp302
F5.5
aF8.4999999999999982
aF5.5
aF10.5
aa(lp303
F1.4999999999999998
aF6.5
aF3.5
aF6.5
aasS'e'
p304
(lp305
(lp306
F1.5
aF8.4999999999999982
aF1.6206666666666665
aF7.8159999999999998
aF1.968
aF7.2143333333333333
aF2.5
aF6.7679999999999989
aF3.1526666666666667
aF6.5303333333333331
aF3.8473333333333328
aF6.5303333333333331
aF4.5
aF6.7679999999999989
aF5.032
aF7.2143333333333333
aF5.3793333333333333
aF7.8159999999999998
aF5.5
aF8.4999999999999982
aa(lp307
F5.5
aF8.4999999999999982
aF5.5
aF9.5
aa(lp308
F5.5
aF9.5
aF1.4999999999999998
aF9.5
aa(lp309
F2.5
aF12.5
aF2.1093333333333333
aF12.420666666666666
aF1.7806666666666666
aF12.194666666666667
aF1.5663333333333334
aF11.858333333333333
aF1.5
aF11.5
aa(lp310
F1.4999999999999998
aF11.5
aF1.4999999999999998
aF8.4999999999999982
aa(lp311
F2.5
aF12.5
aF5.5
aF12.5
aasS'd'
p312
(lp313
(lp314
F3.5
aF12.5
aF2.7186666666666661
aF12.341000000000001
aF2.0613333333333332
aF11.889333333333333
aF1.633
aF11.216666666666667
aF1.5
aF10.5
aa(lp315
F1.5
aF8.4999999999999982
aF1.659
aF7.7186666666666666
aF2.1106666666666665
aF7.0613333333333328
aF2.7833333333333332
aF6.6329999999999991
aF3.5
aF6.5
aa(lp316
F1.4999999999999998
aF8.4999999999999982
aF1.4999999999999998
aF10.5
aa(lp317
F5.5
aF12.5
aF5.5
aF3.5
aa(lp318
F3.5
aF6.5
aF5.5
aF6.5
aa(lp319
F3.5
aF12.5
aF5.5
aF12.5
aasS'g'
p320
(lp321
(lp322
F3.4999999999999996
aF12.5
aF2.7186666666666657
aF12.340999999999999
aF2.0613333333333332
aF11.889333333333333
aF1.6329999999999998
aF11.216666666666667
aF1.5
aF10.5
aa(lp323
F1.5
aF8.4999999999999982
aF1.6589999999999998
aF7.7186666666666666
aF2.1106666666666665
aF7.0613333333333328
aF2.7833333333333328
aF6.6329999999999991
aF3.4999999999999996
aF6.5
aa(lp324
F1.4999999999999996
aF8.4999999999999982
aF1.4999999999999996
aF10.5
aa(lp325
F3.4999999999999996
aF6.5
aF5.5
aF6.5
aa(lp326
F3.4999999999999996
aF12.5
aF5.5
aF12.5
aa(lp327
F5.5
aF6.5
aF5.5
aF13.5
aa(lp328
F5.5
aF13.5
aF5.3409999999999993
aF14.281333333333331
aF4.8893333333333322
aF14.938666666666668
aF4.2166666666666659
aF15.366999999999999
aF3.5
aF15.499999999999998
aa(lp329
F3.5
aF15.499999999999996
aF1.4999999999999998
aF15.499999999999996
aasS'f'
p330
(lp331
(lp332
F2.5
aF12.5
aF2.5
aF5.5
aa(lp333
F1.4999999999999998
aF6.5
aF4.5
aF6.5
aa(lp334
F2.5
aF5.5
aF2.6589999999999998
aF4.7186666666666666
aF3.110666666666666
aF4.0613333333333337
aF3.7833333333333328
aF3.6329999999999996
aF4.5
aF3.5
aasS'i'
p335
(lp336
(lp337
F1.5
aF3.5
aF1.5
aF3.5
aa(lp338
F1.5
aF5.5
aF1.5
aF12.5
aasS'h'
p339
(lp340
(lp341
F1.4999999999999998
aF12.5
aF1.4999999999999998
aF3.5
aa(lp342
F3.5
aF6.5
aF4.2813333333333334
aF6.6589999999999989
aF4.9386666666666654
aF7.1106666666666651
aF5.3669999999999991
aF7.7833333333333323
aF5.5
aF8.4999999999999982
aa(lp343
F3.5
aF6.5
aF1.4999999999999998
aF6.5
aa(lp344
F5.5
aF8.4999999999999982
aF5.5
aF12.5
aa(lp345
F5.5
aF12.5
aF5.5
aF12.5
aasS'k'
p346
(lp347
(lp348
F1.4999999999999998
aF3.5
aF1.4999999999999998
aF12.5
aa(lp349
F5.5
aF6.5
aF1.4999999999999998
aF10.5
aa(lp350
F5.5
aF12.5
aF3.0333333333333332
aF9.0333333333333332
aasS'j'
p351
(lp352
(lp353
F3.5
aF10.5
aF3.3410000000000002
aF11.281333333333331
aF2.8893333333333335
aF11.938666666666666
aF2.2166666666666668
aF12.366999999999999
aF1.5
aF12.5
aa(lp354
F3.5
aF3.5
aF3.5
aF3.5
aa(lp355
F3.5
aF5.5
aF3.5
aF10.5
aasS'm'
p356
(lp357
(lp358
F1.4999999999999998
aF12.5
aF1.4999999999999998
aF6.5
aa(lp359
F1.4999999999999998
aF6.5
aF5.5
aF6.5
aa(lp360
F5.5
aF6.5
aF6.2813333333333334
aF6.6589999999999989
aF6.9386666666666663
aF7.1106666666666651
aF7.367
aF7.7833333333333323
aF7.4999999999999991
aF8.4999999999999982
aa(lp361
F4.5
aF6.5
aF4.5
aF12.5
aa(lp362
F7.4999999999999991
aF8.4999999999999982
aF7.4999999999999991
aF12.5
aasS'l'
p363
(lp364
(lp365
F2.5
aF12.5
aF2.1093333333333333
aF12.420666666666666
aF1.7806666666666666
aF12.194666666666667
aF1.5663333333333334
aF11.858333333333333
aF1.5
aF11.5
aa(lp366
F1.4999999999999998
aF11.5
aF1.4999999999999998
aF3.5
aasS'o'
p367
(lp368
(lp369
F5.5
aF10.5
aF5.3793333333333333
aF11.183999999999997
aF5.032
aF11.785666666666664
aF4.5
aF12.231999999999999
aF3.8473333333333328
aF12.469666666666665
aF3.1526666666666667
aF12.469666666666665
aF2.5
aF12.231999999999999
aF1.968
aF11.785666666666664
aF1.6206666666666665
aF11.183999999999997
aF1.5
aF10.5
aa(lp370
F1.5
aF8.4999999999999982
aF1.6206666666666665
aF7.8159999999999998
aF1.968
aF7.2143333333333333
aF2.5
aF6.7679999999999989
aF3.1526666666666667
aF6.5303333333333331
aF3.8473333333333328
aF6.5303333333333331
aF4.5
aF6.7679999999999989
aF5.032
aF7.2143333333333333
aF5.3793333333333333
aF7.8159999999999998
aF5.5
aF8.4999999999999982
aa(lp371
F1.4999999999999998
aF8.4999999999999982
aF1.4999999999999998
aF10.5
aa(lp372
F5.5
aF8.4999999999999982
aF5.5
aF10.5
aasS'n'
p373
(lp374
(lp375
F1.4999999999999998
aF12.5
aF1.4999999999999998
aF6.5
aa(lp376
F3.5
aF6.5
aF4.2813333333333334
aF6.6589999999999989
aF4.9386666666666654
aF7.1106666666666651
aF5.3669999999999991
aF7.7833333333333323
aF5.5
aF8.4999999999999982
aa(lp377
F1.4999999999999998
aF6.5
aF3.5
aF6.5
aa(lp378
F5.5
aF8.4999999999999982
aF5.5
aF12.5
aasS'q'
p379
(lp380
(lp381
F1.4999999999999996
aF8.4999999999999982
aF1.4999999999999996
aF10.5
aa(lp382
F3.5
aF12.5
aF2.7186666666666661
aF12.341000000000001
aF2.0613333333333332
aF11.889333333333333
aF1.633
aF11.216666666666667
aF1.5
aF10.5
aa(lp383
F1.5
aF8.4999999999999982
aF1.659
aF7.7186666666666666
aF2.1106666666666665
aF7.0613333333333328
aF2.7833333333333332
aF6.6329999999999991
aF3.5
aF6.5
aa(lp384
F5.5
aF6.5
aF5.5
aF15.499999999999996
aa(lp385
F3.5
aF12.5
aF5.5
aF12.5
aa(lp386
F3.5
aF6.5
aF5.5
aF6.5
aasS'p'
p387
(lp388
(lp389
F1.4999999999999996
aF8.4999999999999982
aF1.4999999999999996
aF10.5
aa(lp390
F5.5
aF8.4999999999999982
aF5.5
aF10.5
aa(lp391
F1.4999999999999998
aF15.499999999999996
aF1.4999999999999998
aF6.5
aa(lp392
F1.4999999999999998
aF6.5
aF3.5
aF6.5
aa(lp393
F1.4999999999999998
aF12.5
aF3.5
aF12.5
aa(lp394
F3.5
aF6.5
aF4.2813333333333334
aF6.6589999999999989
aF4.9386666666666654
aF7.1106666666666651
aF5.3669999999999991
aF7.7833333333333323
aF5.5
aF8.4999999999999982
aa(lp395
F5.5
aF10.5
aF5.3409999999999993
aF11.281333333333331
aF4.8893333333333322
aF11.938666666666666
aF4.2166666666666659
aF12.366999999999999
aF3.5
aF12.5
aasS's'
p396
(lp397
(lp398
F5.5
aF7.0
aF4.5
aF6.5
aa(lp399
F4.5
aF6.5
aF2.5
aF6.5
aa(lp400
F2.5
aF6.5
aF1.5
aF7.0
aa(lp401
F1.5
aF7.0
aF1.5
aF7.9999999999999982
aa(lp402
F1.5
aF7.9999999999999982
aF1.9999999999999996
aF8.4999999999999982
aa(lp403
F1.5
aF12.0
aF2.5
aF12.5
aa(lp404
F2.5
aF12.5
aF4.5
aF12.5
aa(lp405
F4.5
aF12.5
aF5.5
aF12.0
aa(lp406
F5.5
aF12.0
aF5.5
aF11.0
aa(lp407
F5.5
aF11.0
aF5.0
aF10.5
aa(lp408
F1.9999999999999996
aF8.4999999999999982
aF5.0
aF10.5
aasS'r'
p409
(lp410
(lp411
F1.4999999999999998
aF12.5
aF1.4999999999999998
aF6.5
aa(lp412
F3.5
aF6.5
aF3.8906666666666663
aF6.5793333333333335
aF4.2193333333333332
aF6.8053333333333335
aF4.4336666666666655
aF7.1416666666666666
aF4.5
aF7.4999999999999991
aa(lp413
F1.4999999999999998
aF6.5
aF3.5
aF6.5
aasS'u'
p414
(lp415
(lp416
F3.5
aF12.5
aF2.7186666666666661
aF12.341000000000001
aF2.0613333333333332
aF11.889333333333333
aF1.633
aF11.216666666666667
aF1.5
aF10.5
aa(lp417
F1.4999999999999998
aF10.5
aF1.4999999999999998
aF6.5
aa(lp418
F5.5
aF12.5
aF5.5
aF6.5
aa(lp419
F3.5
aF12.5
aF5.5
aF12.5
aasS't'
p420
(lp421
(lp422
F2.5
aF12.5
aF2.5
aF3.5
aa(lp423
F1.4999999999999998
aF6.5
aF4.5
aF6.5
aasS'w'
p424
(lp425
(lp426
F1.4999999999999998
aF6.5
aF3.0
aF12.5
aa(lp427
F3.0
aF12.5
aF4.5
aF8.4999999999999982
aa(lp428
F4.5
aF8.4999999999999982
aF6.0
aF12.5
aa(lp429
F6.0
aF12.5
aF7.4999999999999991
aF6.5
aasS'v'
p430
(lp431
(lp432
F1.4999999999999998
aF6.5
aF3.5
aF12.5
aa(lp433
F3.5
aF12.5
aF5.5
aF6.5
aasS'y'
p434
(lp435
(lp436
F5.5
aF6.5
aF2.5
aF14.999999999999996
aa(lp437
F2.5
aF14.999999999999996
aF1.9999999999999996
aF15.499999999999996
aa(lp438
F1.9999999999999996
aF15.499999999999996
aF1.4999999999999998
aF15.499999999999996
aa(lp439
F1.4999999999999998
aF6.5
aF3.4333333333333331
aF12.5
aasS'x'
p440
(lp441
(lp442
F1.4999999999999998
aF6.5
aF5.5
aF12.5
aa(lp443
F1.4999999999999998
aF12.5
aF5.5
aF6.5
aasS'z'
p444
(lp445
(lp446
F1.4999999999999998
aF6.5
aF5.5
aF6.5
aa(lp447
F5.5
aF6.5
aF1.4999999999999998
aF12.5
aa(lp448
F1.4999999999999998
aF12.5
aF5.5
aF12.5
aas.