(icad_kernel.db
ItemDB
p0
(dp2
S'cnt'
p3
(dp4
S'Y'
p5
I7
sS'X'
p6
I7
sS'L'
p7
I4
sS'P'
p8
I8
ssS'data'
p9
(dp10
S'X2'
p11
(icad_canvas.default_tools.level
_X
p12
(dp13
S'org_point'
p14
NsS'code'
p15
NsS'db'
p16
(icad_kernel.db
ItemDB
p17
(dp18
S'cnt'
p19
(dp20
S'Y'
p21
I2
sS'X'
p22
I2
sS'L'
p23
I2
sS'P'
p24
I3
ssS'data'
p25
(dp26
S'P2'
p27
(icad_canvas.default_tools.point
Point
p28
(dp29
g14
Nsg15
Nsg16
g17
sS'org_x'
p30
F519.0
sS'org_y'
p31
F343.0
sS'visible'
p32
I01
sS'tag'
p33
g27
sS'names'
p34
(lp35
S'X2'
p36
aS'Y2'
p37
asS'formula'
p38
S'X2,Y2'
p39
sS'hidden_fill'
p40
(dp41
S'outline'
p42
S''
p43
sS'fill'
p44
g43
ssS'id'
p45
I8
sS'canvas'
p46
NsS'showed'
p47
I00
sS'selected_fill'
p48
(dp49
g42
S'black'
p50
sg44
S'green'
p51
ssS'active_fill'
p52
(dp53
g42
g50
sg44
S'red'
p54
ssS'selected'
p55
I00
sS'value'
p56
(g12
(icad_canvas.default_tools.level
_Y
p57
(dp58
g14
Nsg15
Nsg16
g17
sg40
(dp59
g44
g43
ssg32
I01
sg33
S'Y2'
p60
sg34
(lp61
sS'fellows'
p62
(dp63
g27
g28
sS'P3'
p64
(icad_canvas.default_tools.point
Point
p65
(dp66
g14
Nsg15
Nsg16
g17
sg40
(dp67
g42
g43
sg44
g43
ssg32
I01
sg33
g64
sg34
(lp68
S'X1'
p69
ag37
asg38
S'X1,Y2'
p70
sg62
(dp71
S'L2'
p72
(icad_canvas.default_tools.line
Line
p73
(dp74
g14
NsS'endp'
p75
g65
sg15
Nsg16
g17
sS'style'
p76
(dp77
S'width'
p78
I2
sS'tags'
p79
g72
ssg40
(dp80
g44
g43
ssg32
I01
sg33
g72
sg34
(lp81
S'P1'
p82
ag69
aS'Y1'
p83
aS'P3'
p84
ag69
ag37
asg62
(dp85
sg45
I17
sg46
Nsg47
I00
sg48
(dp86
g44
g51
ssg52
(dp87
g44
g54
ssS'startp'
p88
(icad_canvas.default_tools.point
Point
p89
(dp90
g14
Nsg15
Nsg16
g17
sg30
F168.0
sg31
F175.0
sg32
I01
sg33
S'P1'
p91
sg34
(lp92
g69
ag83
asg38
S'X1,Y1'
p93
sg40
(dp94
g42
g43
sg44
g43
ssg45
I10
sg46
Nsg47
I00
sg48
(dp95
g42
g50
sg44
g51
ssg52
(dp96
g42
g50
sg44
g54
ssg55
I00
sg56
((icad_canvas.default_tools.level
_X
p97
(dp98
g14
Nsg15
Nsg16
g17
sg30
F170.0
sg31
F314.0
sg32
I01
sg33
S'X1'
p99
sg34
(lp100
sg40
(dp101
g44
g43
ssg45
I3
sg46
Nsg47
I00
sg48
(dp102
g44
g51
ssg52
(dp103
g44
g54
ssg55
I00
sS'line_list_param'
p104
(lp105
F170.0
aI0
aF170.0
aS'600'
p106
asg56
F134.0
sS'passive_fill'
p107
(dp108
g44
S'gray'
p109
ssS'line_kw_param'
p110
(dp111
g78
I1
sg79
g99
sg44
g109
ssg38
S'134.0'
p112
sg62
(dp113
g64
g65
sg91
g89
ssb(icad_canvas.default_tools.level
_Y
p114
(dp115
g14
Nsg15
Nsg16
g17
sg40
(dp116
g44
g43
ssg32
I01
sg33
S'Y1'
p117
sg34
(lp118
sg62
(dp119
g91
g89
ssg45
I20
sg46
Nsg47
I00
sg48
(dp120
g44
g51
ssg52
(dp121
g44
g54
ssg55
I00
sg104
(lp122
I0
aF176.0
aS'800'
p123
aF176.0
asg56
F195.0
sg107
(dp124
g44
g109
ssg110
(dp125
g78
I1
sg79
g117
sg44
g109
ssg38
S'195.0'
p126
sbtp127
sg107
(dp128
g42
g50
sg44
g43
ssS'y'
p129
g114
sS'x'
p130
g97
sg62
(dp131
g72
g73
sS'L1'
p132
(icad_canvas.default_tools.line
Line
p133
(dp134
g14
Nsg75
g28
sg15
Nsg16
g17
sg76
(dp135
g78
I2
sg79
g132
ssg30
F387.0
sg31
F263.0
sg32
I01
sg33
g132
sg34
(lp136
g82
ag69
ag83
aS'P2'
p137
ag36
ag37
asg40
(dp138
g44
g43
ssg45
I19
sg46
Nsg107
(dp139
g44
g50
ssg47
I00
sg48
(dp140
g44
g51
ssg52
(dp141
g44
g54
ssg88
g89
sg55
I00
sg56
(g89
g28
tp142
sg62
(dp143
sS'id_txt'
p144
I19
sg38
S'P1,P2'
p145
sbssbsg55
I00
sg56
(g89
g65
tp146
sg107
(dp147
g44
g50
ssg38
S'P1,P3'
p148
sbssg45
I9
sg46
Nsg47
I00
sg48
(dp149
g42
g50
sg44
g51
ssg52
(dp150
g42
g50
sg44
g54
ssg55
I00
sg56
(g97
g57
tp151
sg107
(dp152
g42
g50
sg44
g43
ssg129
g57
sg130
g97
sbssg45
I22
sg46
Nsg47
I00
sg48
(dp153
g44
g51
ssg52
(dp154
g44
g54
ssg55
I00
sg104
(lp155
I0
aF184.0
aS'800'
p156
aF184.0
asg56
F422.0
sg107
(dp157
g44
g109
ssg110
(dp158
g78
I1
sg79
g60
sg44
g109
ssg38
S'422.0'
p159
sbtp160
sg107
(dp161
g42
g50
sg44
g43
ssg129
g57
sg130
g12
sg62
(dp162
g132
g133
ssbsg64
g65
sg91
g89
sg11
g12
sg72
g73
sg132
g133
sg117
g114
sg99
g97
sg60
g57
ssS'user_vars'
p163
(dp164
sbsg40
(dp165
g44
g43
ssg32
I01
sg33
g11
sg34
(lp166
sg62
(dp167
g27
g28
ssg45
I1
sg46
Nsg47
I00
sg48
(dp168
g44
g51
ssg52
(dp169
g44
g54
ssg55
I00
sg104
(lp170
F487.0
aI0
aF487.0
aS'600'
p171
asg56
F576.0
sg107
(dp172
g44
g109
ssg110
(dp173
g78
I1
sg79
g11
sg44
g109
ssg38
S'576.0'
p174
sbsS'X3'
p175
(icad_canvas.default_tools.level
_X
p176
(dp177
S'org_point'
p178
NsS'code'
p179
NsS'db'
p180
(icad_kernel.db
ItemDB
p181
(dp182
S'cnt'
p183
(dp184
S'Y'
p185
I6
sS'X'
p186
I6
sS'L'
p187
I4
sS'P'
p188
I7
ssS'data'
p189
(dp190
g11
g12
sg175
g176
sg99
g97
sS'X6'
p191
(icad_canvas.default_tools.level
_X
p192
(dp193
S'org_point'
p194
NsS'code'
p195
NsS'db'
p196
g181
sS'hidden_fill'
p197
(dp198
S'fill'
p199
g43
ssS'visible'
p200
I01
sS'tag'
p201
g191
sS'names'
p202
(lp203
sS'fellows'
p204
(dp205
S'P7'
p206
(icad_canvas.default_tools.point
Point
p207
(dp208
g194
Nsg195
Nsg196
g181
sS'org_x'
p209
F718.0
sS'org_y'
p210
F300.0
sg200
I01
sg201
g206
sg202
(lp211
S'X6'
p212
aS'Y6'
p213
asS'formula'
p214
S'X6,Y6'
p215
sg197
(dp216
S'outline'
p217
g43
sg199
g43
ssS'id'
p218
I12
sS'canvas'
p219
NsS'showed'
p220
I00
sS'selected_fill'
p221
(dp222
g217
S'black'
p223
sg199
S'green'
p224
ssS'active_fill'
p225
(dp226
g217
g223
sg199
S'red'
p227
ssS'selected'
p228
I00
sS'value'
p229
(g192
(icad_canvas.default_tools.level
_Y
p230
(dp231
g194
Nsg195
Nsg196
g181
sg197
(dp232
g199
g43
ssg200
I01
sg201
S'Y6'
p233
sg202
(lp234
sg204
(dp235
g206
g207
ssg218
I26
sg219
Nsg220
I00
sg221
(dp236
g199
g224
ssg225
(dp237
g199
g227
ssg228
I00
sS'line_list_param'
p238
(lp239
I0
aF237.0
aS'800'
p240
aF237.0
asg229
F295.0
sS'passive_fill'
p241
(dp242
g199
S'gray'
p243
ssS'line_kw_param'
p244
(dp245
S'width'
p246
I1
sS'tags'
p247
g233
sg199
g243
ssg214
S'295.0'
p248
sbtp249
sg241
(dp250
g217
g223
sg199
g43
ssS'y'
p251
g230
sS'x'
p252
g192
sg204
(dp253
S'L4'
p254
(icad_canvas.default_tools.line
Line
p255
(dp256
g194
NsS'endp'
p257
g207
sg195
Nsg196
g181
sS'style'
p258
(dp259
g246
I2
sg247
g254
ssg197
(dp260
g199
g43
ssg200
I01
sg201
g254
sg202
(lp261
S'P6'
p262
aS'X5'
p263
aS'Y5'
p264
aS'P7'
p265
ag212
ag213
asg204
(dp266
sg218
I16
sg219
Nsg220
I00
sg221
(dp267
g199
g224
ssg225
(dp268
g199
g227
ssS'startp'
p269
(icad_canvas.default_tools.point
Point
p270
(dp271
g194
Nsg195
Nsg196
g181
sg197
(dp272
g217
g43
sg199
g43
ssg200
I01
sg201
S'P6'
p273
sg202
(lp274
g263
ag264
asg214
S'X5,Y5'
p275
sg204
(dp276
g254
g255
ssg218
I11
sg219
Nsg220
I00
sg221
(dp277
g217
g223
sg199
g224
ssg225
(dp278
g217
g223
sg199
g227
ssg228
I00
sg229
((icad_canvas.default_tools.level
_X
p279
(dp280
g194
Nsg195
Nsg196
g181
sg197
(dp281
g199
g43
ssg200
I01
sg201
S'X5'
p282
sg202
(lp283
sg204
(dp284
g273
g270
ssg218
I7
sg219
Nsg220
I00
sg221
(dp285
g199
g224
ssg225
(dp286
g199
g227
ssg228
I00
sg238
(lp287
F639.0
aI0
aF639.0
aS'600'
p288
asg229
F639.0
sg241
(dp289
g199
g243
ssg244
(dp290
g246
I1
sg247
g282
sg199
g243
ssg214
S'639.0'
p291
sb(icad_canvas.default_tools.level
_Y
p292
(dp293
g194
Nsg195
Nsg196
g181
sg197
(dp294
g199
g43
ssg200
I01
sg201
S'Y5'
p295
sg202
(lp296
sg204
(dp297
g273
g270
ssg218
I23
sg219
Nsg220
I00
sg221
(dp298
g199
g224
ssg225
(dp299
g199
g227
ssg228
I00
sg238
(lp300
I0
aF68.0
aS'800'
p301
aF68.0
asg229
F68.0
sg241
(dp302
g199
g243
ssg244
(dp303
g246
I1
sg247
g295
sg199
g243
ssg214
S'68.0'
p304
sbtp305
sg241
(dp306
g217
g223
sg199
g43
ssg251
g292
sg252
g279
sbsg228
I00
sg229
(g270
g207
tp307
sg241
(dp308
g199
g223
ssg214
S'P6,P7'
p309
sbssbssg218
I4
sg219
Nsg220
I00
sg221
(dp310
g199
g224
ssg225
(dp311
g199
g227
ssg228
I00
sg238
(lp312
F651.0
aI0
aF651.0
aS'600'
p313
asg229
F727.0
sg241
(dp314
g199
g243
ssg244
(dp315
g246
I1
sg247
g191
sg199
g243
ssg214
S'727.0'
p316
sbsS'X4'
p317
(icad_canvas.default_tools.level
_X
p318
(dp319
g178
Nsg179
Nsg180
g181
sS'hidden_fill'
p320
(dp321
S'fill'
p322
g43
ssS'visible'
p323
I01
sS'tag'
p324
g317
sS'names'
p325
(lp326
sS'fellows'
p327
(dp328
S'P5'
p329
(icad_canvas.default_tools.point
Point
p330
(dp331
g178
Nsg179
Nsg180
g181
sS'org_x'
p332
F408.0
sS'org_y'
p333
F69.0
sg323
I01
sg324
g329
sg325
(lp334
S'X4'
p335
aS'Y4'
p336
asS'x'
p337
g318
sg320
(dp338
S'outline'
p339
g43
sg322
g43
ssS'id'
p340
I14
sS'canvas'
p341
NsS'showed'
p342
I00
sS'selected_fill'
p343
(dp344
g339
S'black'
p345
sg322
S'green'
p346
ssS'active_fill'
p347
(dp348
g339
g345
sg322
S'red'
p349
ssS'selected'
p350
I00
sS'value'
p351
(g318
(icad_canvas.default_tools.level
_Y
p352
(dp353
g178
Nsg179
Nsg180
g181
sg320
(dp354
g322
g43
ssg323
I01
sg324
S'Y4'
p355
sg325
(lp356
sg327
(dp357
g329
g330
ssg340
I24
sg341
Nsg342
I00
sg343
(dp358
g322
g346
ssg347
(dp359
g322
g349
ssg350
I00
sS'line_list_param'
p360
(lp361
I0
aF69.0
aS'800'
p362
aF69.0
asg351
F174.0
sS'passive_fill'
p363
(dp364
g322
S'gray'
p365
ssS'line_kw_param'
p366
(dp367
S'width'
p368
I1
sg322
g365
sS'tags'
p369
g355
ssS'formula'
p370
S'174.0'
p371
sbtp372
sg363
(dp373
g339
g345
sg322
g43
ssS'y'
p374
g352
sg370
S'X4,Y4'
p375
sg327
(dp376
S'L3'
p377
(icad_canvas.default_tools.line
Line
p378
(dp379
g178
NsS'endp'
p380
g330
sg179
Nsg180
g181
sS'style'
p381
(dp382
g368
I2
sg369
g377
ssg320
(dp383
g322
g43
ssg323
I01
sg324
g377
sg325
(lp384
S'P4'
p385
aS'X3'
p386
aS'Y3'
p387
aS'P5'
p388
ag335
ag336
asg327
(dp389
sg340
I18
sg341
Nsg342
I00
sg343
(dp390
g322
g346
ssg347
(dp391
g322
g349
ssS'startp'
p392
(icad_canvas.default_tools.point
Point
p393
(dp394
g178
Nsg179
Nsg180
g181
sg320
(dp395
g339
g43
sg322
g43
ssg323
I01
sg324
S'P4'
p396
sg325
(lp397
g386
ag387
asg337
g176
sg327
(dp398
g377
g378
ssg340
I13
sg341
Nsg342
I00
sg343
(dp399
g339
g345
sg322
g346
ssg347
(dp400
g339
g345
sg322
g349
ssg350
I00
sg351
(g176
(icad_canvas.default_tools.level
_Y
p401
(dp402
g178
Nsg179
Nsg180
g181
sg320
(dp403
g322
g43
ssg323
I01
sg324
S'Y3'
p404
sg325
(lp405
sg327
(dp406
g396
g393
ssg340
I21
sg341
Nsg342
I00
sg343
(dp407
g322
g346
ssg347
(dp408
g322
g349
ssg350
I00
sg360
(lp409
I0
aF100.0
aS'800'
p410
aF100.0
asg351
F100.0
sg363
(dp411
g322
g365
ssg366
(dp412
g368
I1
sg322
g365
sg369
g404
ssg370
S'100.0'
p413
sbtp414
sg363
(dp415
g339
g345
sg322
g43
ssg374
g401
sg370
S'X3,Y3'
p416
sbsg350
I00
sg351
(g393
g330
tp417
sg363
(dp418
g322
g345
ssg370
S'P4,P5'
p419
sbssbssg340
I6
sg341
Nsg342
I00
sg343
(dp420
g322
g346
ssg347
(dp421
g322
g349
ssg350
I00
sg360
(lp422
F409.0
aI0
aF409.0
aS'600'
p423
asg351
F456.0
sg363
(dp424
g322
g365
ssg366
(dp425
g368
I1
sg322
g365
sg369
g317
ssg370
S'456.0'
p426
sbsg282
g279
sg27
g28
sg64
g65
sg91
g89
sg273
g270
sg206
g207
sg396
g393
sg329
g330
sg254
g255
sg72
g73
sg377
g378
sg132
g133
sg117
g114
sg404
g401
sg60
g57
sg295
g292
sg355
g352
sg233
g230
ssS'user_vars'
p427
(dp428
sbsg320
(dp429
g322
g43
ssg323
I01
sg324
g175
sg325
(lp430
sg327
(dp431
g396
g393
ssg340
I2
sg341
Nsg342
I00
sg343
(dp432
g322
g346
ssg347
(dp433
g322
g349
ssg350
I00
sg360
(lp434
F258.0
aI0
aF258.0
aS'600'
p435
asg351
F258.0
sg363
(dp436
g322
g365
ssg366
(dp437
g368
I1
sg322
g365
sg369
g175
ssg370
S'258.0'
p438
sbsg99
g97
sS'X6'
p439
g192
sS'X7'
p440
(icad_canvas.default_tools.level
_X
p441
(dp442
S'org_point'
p443
NsS'code'
p444
NsS'db'
p445
g0
sS'hidden_fill'
p446
(dp447
S'fill'
p448
g43
ssS'visible'
p449
I01
sS'tag'
p450
g440
sS'names'
p451
(lp452
sS'fellows'
p453
(dp454
S'P8'
p455
(icad_canvas.default_tools.point
Point
p456
(dp457
g443
Nsg444
Nsg445
g0
sS'org_x'
p458
F227.0
sS'org_y'
p459
F204.0
sg449
I01
sg450
g455
sg451
(lp460
S'X7'
p461
aS'Y7'
p462
asS'x'
p463
g441
sg446
(dp464
S'outline'
p465
g43
sg448
g43
ssS'id'
p466
I15
sS'canvas'
p467
NsS'showed'
p468
I00
sS'selected_fill'
p469
(dp470
g465
S'black'
p471
sg448
S'green'
p472
ssS'active_fill'
p473
(dp474
g465
g471
sg448
S'red'
p475
ssS'selected'
p476
I00
sS'value'
p477
(g441
(icad_canvas.default_tools.level
_Y
p478
(dp479
g443
Nsg444
Nsg445
g0
sg446
(dp480
g448
g43
ssg449
I01
sg450
S'Y7'
p481
sg451
(lp482
sg453
(dp483
g455
g456
ssg466
I25
sg467
Nsg468
I00
sg469
(dp484
g448
g472
ssg473
(dp485
g448
g475
ssg476
I00
sS'line_list_param'
p486
(lp487
I0
aF37.0
aS'800'
p488
aF37.0
asg477
F215.0
sS'passive_fill'
p489
(dp490
g448
S'gray'
p491
ssS'line_kw_param'
p492
(dp493
S'width'
p494
I1
sg448
g491
sS'tags'
p495
g481
ssS'formula'
p496
S'215.0'
p497
sbtp498
sg489
(dp499
g465
g471
sg448
g43
ssS'y'
p500
g478
sg496
S'X7,Y7'
p501
sg453
(dp502
sbssg466
I5
sg467
Nsg468
I00
sg469
(dp503
g448
g472
ssg473
(dp504
g448
g475
ssg476
I00
sg486
(lp505
F290.0
aI0
aF290.0
aS'600'
p506
asg477
F322.0
sg489
(dp507
g448
g491
ssg492
(dp508
g494
I1
sg448
g491
sg495
g440
ssg496
S'322.0'
p509
sbsg317
g318
sS'X5'
p510
g279
sg27
g28
sg64
g65
sg91
g89
sS'P6'
p511
g270
sS'P7'
p512
g207
sg396
g393
sg329
g330
sg455
g456
sS'L4'
p513
g255
sg72
g73
sg377
g378
sg132
g133
sg117
g114
sS'Y3'
p514
g401
sg60
g57
sS'Y5'
p515
g292
sg355
g352
sg481
g478
sS'Y6'
p516
g230
ssS'user_vars'
p517
(dp518
sb.